
c:/Users/Abdurrahman/Documents/labs/lab_8_v2/target/3.0.0/argon/lab_8_v2.elf:     file format elf32-littlearm

Sections:
Idx Name          Size      VMA       LMA       File off  Algn
  0 .module_info  00000018  000d4000  000d4000  00004000  2**0
                  CONTENTS, ALLOC, LOAD, READONLY, DATA
  1 .dynalib      00000004  000d4018  000d4018  00004018  2**2
                  CONTENTS, ALLOC, LOAD, READONLY, DATA
  2 .text         00003714  000d401c  000d401c  0000401c  2**2
                  CONTENTS, ALLOC, LOAD, READONLY, CODE
  3 .backup       00000004  2003f400  000d7730  0000f400  2**2
                  CONTENTS, ALLOC, LOAD, DATA
  4 .data         00000068  2003e558  000d7734  0001e558  2**2
                  CONTENTS, ALLOC, LOAD, DATA
  5 .bss          00000230  2003e5c0  2003e5c0  0002e5c0  2**2
                  ALLOC
  6 .module_info_suffix 00000028  000d779c  000d779c  0002779c  2**0
                  CONTENTS, ALLOC, LOAD, READONLY, DATA
  7 .module_info_crc 00000004  000d77c4  000d77c4  000277c4  2**0
                  CONTENTS, ALLOC, LOAD, READONLY, DATA
  8 .debug_info   001e0108  00000000  00000000  000277c8  2**0
                  CONTENTS, READONLY, DEBUGGING
  9 .debug_abbrev 0001ac4d  00000000  00000000  002078d0  2**0
                  CONTENTS, READONLY, DEBUGGING
 10 .debug_loc    0003c033  00000000  00000000  0022251d  2**0
                  CONTENTS, READONLY, DEBUGGING
 11 .debug_aranges 00002dd0  00000000  00000000  0025e550  2**0
                  CONTENTS, READONLY, DEBUGGING
 12 .debug_ranges 00009318  00000000  00000000  00261320  2**0
                  CONTENTS, READONLY, DEBUGGING
 13 .debug_macro  0003faf8  00000000  00000000  0026a638  2**0
                  CONTENTS, READONLY, DEBUGGING
 14 .debug_line   00048d83  00000000  00000000  002aa130  2**0
                  CONTENTS, READONLY, DEBUGGING
 15 .debug_str    00128ccc  00000000  00000000  002f2eb3  2**0
                  CONTENTS, READONLY, DEBUGGING
 16 .debug_frame  00008350  00000000  00000000  0041bb80  2**2
                  CONTENTS, READONLY, DEBUGGING

Disassembly of section .text:

000d401c <module_user_pre_init>:
/**
 * Initializes this user module. Returns the start of the heap.
 */
void* module_user_pre_init() {

    if ( (&link_global_data_start!=&link_global_data_initial_values) && (link_global_data_size != 0))
   d401c:	4809      	ldr	r0, [pc, #36]	; (d4044 <link_dynalib_end+0x28>)
   d401e:	490a      	ldr	r1, [pc, #40]	; (d4048 <link_dynalib_end+0x2c>)
   d4020:	4288      	cmp	r0, r1
void* module_user_pre_init() {
   d4022:	b508      	push	{r3, lr}
    if ( (&link_global_data_start!=&link_global_data_initial_values) && (link_global_data_size != 0))
   d4024:	d005      	beq.n	d4032 <module_user_pre_init+0x16>
   d4026:	4a09      	ldr	r2, [pc, #36]	; (d404c <link_dynalib_end+0x30>)
   d4028:	4282      	cmp	r2, r0
   d402a:	d002      	beq.n	d4032 <module_user_pre_init+0x16>
    {
        memcpy(&link_global_data_start, &link_global_data_initial_values, link_global_data_size);
   d402c:	1a12      	subs	r2, r2, r0
   d402e:	f002 fca9 	bl	d6984 <memcpy>
    }

    memset(&link_bss_location, 0, link_bss_size );
   d4032:	4807      	ldr	r0, [pc, #28]	; (d4050 <link_dynalib_end+0x34>)
   d4034:	4a07      	ldr	r2, [pc, #28]	; (d4054 <link_dynalib_end+0x38>)
   d4036:	2100      	movs	r1, #0
   d4038:	1a12      	subs	r2, r2, r0
   d403a:	f002 fcb1 	bl	d69a0 <memset>
    return &link_global_data_start;
}
   d403e:	4801      	ldr	r0, [pc, #4]	; (d4044 <link_dynalib_end+0x28>)
   d4040:	bd08      	pop	{r3, pc}
   d4042:	bf00      	nop
   d4044:	2003e558 	.word	0x2003e558
   d4048:	000d7734 	.word	0x000d7734
   d404c:	2003e5c0 	.word	0x2003e5c0
   d4050:	2003e5c0 	.word	0x2003e5c0
   d4054:	2003e7f0 	.word	0x2003e7f0

000d4058 <module_user_init>:
extern constructor_ptr_t link_constructors_location[];
extern constructor_ptr_t link_constructors_end;
#define link_constructors_size   ((unsigned long)&link_constructors_end  -  (unsigned long)&link_constructors_location )

void module_user_init()
{
   d4058:	b570      	push	{r4, r5, r6, lr}
    module_user_init_hook();

    // invoke constructors
    int ctor_num;
    for (ctor_num=0; ctor_num < link_constructors_size/sizeof(constructor_ptr_t); ctor_num++ )
   d405a:	4e07      	ldr	r6, [pc, #28]	; (d4078 <module_user_init+0x20>)
   d405c:	4c07      	ldr	r4, [pc, #28]	; (d407c <module_user_init+0x24>)
    module_user_init_hook();
   d405e:	f002 f8a3 	bl	d61a8 <module_user_init_hook>
    for (ctor_num=0; ctor_num < link_constructors_size/sizeof(constructor_ptr_t); ctor_num++ )
   d4062:	1ba4      	subs	r4, r4, r6
   d4064:	08a4      	lsrs	r4, r4, #2
   d4066:	2500      	movs	r5, #0
   d4068:	42a5      	cmp	r5, r4
   d406a:	d100      	bne.n	d406e <module_user_init+0x16>
    {
        link_constructors_location[ctor_num]();
    }
}
   d406c:	bd70      	pop	{r4, r5, r6, pc}
        link_constructors_location[ctor_num]();
   d406e:	f856 3b04 	ldr.w	r3, [r6], #4
   d4072:	4798      	blx	r3
    for (ctor_num=0; ctor_num < link_constructors_size/sizeof(constructor_ptr_t); ctor_num++ )
   d4074:	3501      	adds	r5, #1
   d4076:	e7f7      	b.n	d4068 <module_user_init+0x10>
   d4078:	000d7700 	.word	0x000d7700
   d407c:	000d7724 	.word	0x000d7724

000d4080 <module_user_setup>:

/**
 * Export these functions with a fuller name so they don't clash with the setup/loop wrappers in the system module.
 */
void module_user_setup() {
    setup();
   d4080:	f000 b826 	b.w	d40d0 <setup>

000d4084 <module_user_loop>:
}

void module_user_loop() {
   d4084:	b508      	push	{r3, lr}
    loop();
   d4086:	f000 f84d 	bl	d4124 <loop>
    _post_loop();
}
   d408a:	e8bd 4008 	ldmia.w	sp!, {r3, lr}
    _post_loop();
   d408e:	f002 b84d 	b.w	d612c <_post_loop>

000d4092 <_Znaj>:
   d4092:	f001 be15 	b.w	d5cc0 <malloc>

000d4096 <_ZdlPv>:
	return malloc(size);
}

void operator delete(void *p)
{
	free(p);
   d4096:	f001 be1b 	b.w	d5cd0 <free>
	...

000d409c <__cxa_pure_virtual>:
char* strerror(int errnum) {
    return (char*)"";
}

/* Default implementation for call made to pure virtual function. */
void __cxa_pure_virtual() {
   d409c:	b508      	push	{r3, lr}
  PANIC(PureVirtualCall,"Call on pure virtual");
   d409e:	4a03      	ldr	r2, [pc, #12]	; (d40ac <__cxa_pure_virtual+0x10>)
   d40a0:	2100      	movs	r1, #0
   d40a2:	200c      	movs	r0, #12
   d40a4:	f001 fd70 	bl	d5b88 <panic_>
  while (1);
   d40a8:	e7fe      	b.n	d40a8 <__cxa_pure_virtual+0xc>
   d40aa:	bf00      	nop
   d40ac:	000d58f9 	.word	0x000d58f9

000d40b0 <__cxa_guard_acquire>:

/* Provide default implemenation for __cxa_guard_acquire() and
 * __cxa_guard_release(). Note: these must be revisited if a multitasking
 * OS is ported to this platform. */
__extension__ typedef int __guard __attribute__((mode (__DI__)));
int __cxa_guard_acquire(__guard *g) {return !*(char *)(g);};
   d40b0:	7800      	ldrb	r0, [r0, #0]
   d40b2:	fab0 f080 	clz	r0, r0
   d40b6:	0940      	lsrs	r0, r0, #5
   d40b8:	4770      	bx	lr

000d40ba <__cxa_guard_release>:
void __cxa_guard_release (__guard *g) {*(char *)g = 1;};
   d40ba:	2301      	movs	r3, #1
   d40bc:	7003      	strb	r3, [r0, #0]
   d40be:	4770      	bx	lr

000d40c0 <_ZN11SystemClassD1Ev>:
    system_error_t error_;
    SleepResult compatResult_;
};


class SystemClass {
   d40c0:	b510      	push	{r4, lr}
   d40c2:	4604      	mov	r4, r0
        if (wakeupSource_) {
   d40c4:	6800      	ldr	r0, [r0, #0]
   d40c6:	b108      	cbz	r0, d40cc <_ZN11SystemClassD1Ev+0xc>
            free(wakeupSource_);
   d40c8:	f001 fe02 	bl	d5cd0 <free>
class SystemClass {
   d40cc:	4620      	mov	r0, r4
   d40ce:	bd10      	pop	{r4, pc}

000d40d0 <setup>:
SYSTEM_MODE(MANUAL);
SYSTEM_THREAD(ENABLED);
OledWingAdafruit display;
VCNL4040 proximitySensor;
// setup() runs once, when the device is first turned on.
void setup() {
   d40d0:	b510      	push	{r4, lr}
  Wire.begin();
   d40d2:	f002 fc17 	bl	d6904 <_Z19__fetch_global_Wirev>
   d40d6:	f002 fa53 	bl	d6580 <_ZN7TwoWire5beginEv>
  display.setup();
   d40da:	4810      	ldr	r0, [pc, #64]	; (d411c <setup+0x4c>)
	display.clearDisplay();
	display.display();
  pinMode(D5,OUTPUT);
  pinMode(D6,OUTPUT);
  pinMode(D7,OUTPUT);
  proximitySensor.begin();
   d40dc:	4c10      	ldr	r4, [pc, #64]	; (d4120 <setup+0x50>)
  display.setup();
   d40de:	f000 fd47 	bl	d4b70 <_ZN16OledWingAdafruit5setupEv>
	display.clearDisplay();
   d40e2:	480e      	ldr	r0, [pc, #56]	; (d411c <setup+0x4c>)
   d40e4:	f001 f8ca 	bl	d527c <_ZN16Adafruit_SSD130612clearDisplayEv>
	display.display();
   d40e8:	480c      	ldr	r0, [pc, #48]	; (d411c <setup+0x4c>)
   d40ea:	f001 fb33 	bl	d5754 <_ZN16Adafruit_SSD13067displayEv>
  pinMode(D5,OUTPUT);
   d40ee:	2101      	movs	r1, #1
   d40f0:	2005      	movs	r0, #5
   d40f2:	f002 fbb1 	bl	d6858 <pinMode>
  pinMode(D6,OUTPUT);
   d40f6:	2101      	movs	r1, #1
   d40f8:	2006      	movs	r0, #6
   d40fa:	f002 fbad 	bl	d6858 <pinMode>
  pinMode(D7,OUTPUT);
   d40fe:	2101      	movs	r1, #1
   d4100:	2007      	movs	r0, #7
   d4102:	f002 fba9 	bl	d6858 <pinMode>
  proximitySensor.begin();
   d4106:	f002 fbfd 	bl	d6904 <_Z19__fetch_global_Wirev>
   d410a:	4601      	mov	r1, r0
   d410c:	4620      	mov	r0, r4
   d410e:	f000 ff12 	bl	d4f36 <_ZN8VCNL40405beginER7TwoWire>
  proximitySensor.powerOnAmbient();
   d4112:	4620      	mov	r0, r4
  // Put initialization like pinMode and begin functions here.

}
   d4114:	e8bd 4010 	ldmia.w	sp!, {r4, lr}
  proximitySensor.powerOnAmbient();
   d4118:	f000 bea0 	b.w	d4e5c <_ZN8VCNL404014powerOnAmbientEv>
   d411c:	2003e5d0 	.word	0x2003e5d0
   d4120:	2003e640 	.word	0x2003e640

000d4124 <loop>:
  analogWrite(D5, green);
  analogWrite(D7, blue);
}

// loop() runs over and over again, as quickly as it can execute.
void loop() {
   d4124:	b570      	push	{r4, r5, r6, lr}
  display.loop();
   d4126:	4c3f      	ldr	r4, [pc, #252]	; (d4224 <loop+0x100>)
   d4128:	4620      	mov	r0, r4
   d412a:	f000 fd4a 	bl	d4bc2 <_ZN16OledWingAdafruit4loopEv>
  int proxValue = proximitySensor.getProximity(); 
   d412e:	483e      	ldr	r0, [pc, #248]	; (d4228 <loop+0x104>)
   d4130:	f000 fe15 	bl	d4d5e <_ZN8VCNL404012getProximityEv>
   d4134:	4606      	mov	r6, r0
  int ambientValue = proximitySensor.getAmbient();
   d4136:	483c      	ldr	r0, [pc, #240]	; (d4228 <loop+0x104>)
   d4138:	f000 fe14 	bl	d4d64 <_ZN8VCNL404010getAmbientEv>
   d413c:	4605      	mov	r5, r0

  if (display.pressedA()) {
   d413e:	4620      	mov	r0, r4
   d4140:	f000 fd58 	bl	d4bf4 <_ZN16OledWingAdafruit8pressedAEv>
   d4144:	b1b8      	cbz	r0, d4176 <loop+0x52>
		display.clearDisplay();
   d4146:	4620      	mov	r0, r4
   d4148:	f001 f898 	bl	d527c <_ZN16Adafruit_SSD130612clearDisplayEv>
		display.setTextSize(1);
   d414c:	2101      	movs	r1, #1
   d414e:	4620      	mov	r0, r4
   d4150:	f000 fcbf 	bl	d4ad2 <_ZN12Adafruit_GFX11setTextSizeEh>
    @param   c   16-bit 5-6-5 Color to draw text with
    @note    For 'transparent' background, background and foreground
             are set to same color rather than using a separate flag.
  */
  /**********************************************************************/
  void setTextColor(uint16_t c) { textcolor = textbgcolor = c; }
   d4154:	2200      	movs	r2, #0
   d4156:	f04f 1301 	mov.w	r3, #65537	; 0x10001
		display.setTextColor(WHITE);
		display.setCursor(0,0);
		display.println("Proximity Value: ");
   d415a:	4934      	ldr	r1, [pc, #208]	; (d422c <loop+0x108>)
   d415c:	4620      	mov	r0, r4
   d415e:	e9c4 2304 	strd	r2, r3, [r4, #16]
   d4162:	f001 ff38 	bl	d5fd6 <_ZN5Print7printlnEPKc>
            val = n;
        }
#if __GNUC__ >= 9
#pragma GCC diagnostic pop
#endif // __GNUC__ >= 9
        return printNumber(val, base) + t;
   d4166:	220a      	movs	r2, #10
   d4168:	4631      	mov	r1, r6
   d416a:	4620      	mov	r0, r4
   d416c:	f001 ff3d 	bl	d5fea <_ZN5Print11printNumberEmh>
    display.print(proxValue);
		display.display();
   d4170:	4620      	mov	r0, r4
   d4172:	f001 faef 	bl	d5754 <_ZN16Adafruit_SSD13067displayEv>
	}
	if (display.pressedB()) {
   d4176:	482b      	ldr	r0, [pc, #172]	; (d4224 <loop+0x100>)
   d4178:	f000 fd46 	bl	d4c08 <_ZN16OledWingAdafruit8pressedBEv>
   d417c:	b180      	cbz	r0, d41a0 <loop+0x7c>
    display.clearDisplay();
   d417e:	4829      	ldr	r0, [pc, #164]	; (d4224 <loop+0x100>)
   d4180:	f001 f87c 	bl	d527c <_ZN16Adafruit_SSD130612clearDisplayEv>
  void setCursor(int16_t x, int16_t y) { cursor_x = x; cursor_y = y; }
   d4184:	2300      	movs	r3, #0
    display.setCursor(0,0);
    display.println("Ambient Value: ");
   d4186:	492a      	ldr	r1, [pc, #168]	; (d4230 <loop+0x10c>)
   d4188:	4826      	ldr	r0, [pc, #152]	; (d4224 <loop+0x100>)
   d418a:	6123      	str	r3, [r4, #16]
   d418c:	f001 ff23 	bl	d5fd6 <_ZN5Print7printlnEPKc>
   d4190:	4824      	ldr	r0, [pc, #144]	; (d4224 <loop+0x100>)
   d4192:	220a      	movs	r2, #10
   d4194:	4629      	mov	r1, r5
   d4196:	f001 ff28 	bl	d5fea <_ZN5Print11printNumberEmh>
    display.print(ambientValue);
    display.display();
   d419a:	4822      	ldr	r0, [pc, #136]	; (d4224 <loop+0x100>)
   d419c:	f001 fada 	bl	d5754 <_ZN16Adafruit_SSD13067displayEv>
	}

	if (display.pressedC()) {
   d41a0:	4820      	ldr	r0, [pc, #128]	; (d4224 <loop+0x100>)
   d41a2:	f000 fd3b 	bl	d4c1c <_ZN16OledWingAdafruit8pressedCEv>
   d41a6:	b158      	cbz	r0, d41c0 <loop+0x9c>
    display.clearDisplay();
   d41a8:	481e      	ldr	r0, [pc, #120]	; (d4224 <loop+0x100>)
   d41aa:	f001 f867 	bl	d527c <_ZN16Adafruit_SSD130612clearDisplayEv>
   d41ae:	2300      	movs	r3, #0
    display.setCursor(0,0);
		display.println("I2C address: 0x60");
   d41b0:	4920      	ldr	r1, [pc, #128]	; (d4234 <loop+0x110>)
   d41b2:	481c      	ldr	r0, [pc, #112]	; (d4224 <loop+0x100>)
   d41b4:	6123      	str	r3, [r4, #16]
   d41b6:	f001 ff0e 	bl	d5fd6 <_ZN5Print7printlnEPKc>
    display.display();
   d41ba:	481a      	ldr	r0, [pc, #104]	; (d4224 <loop+0x100>)
   d41bc:	f001 faca 	bl	d5754 <_ZN16Adafruit_SSD13067displayEv>
	}
  if(proxValue < 200){
   d41c0:	2ec7      	cmp	r6, #199	; 0xc7
   d41c2:	dc0b      	bgt.n	d41dc <loop+0xb8>
    digitalWrite(D5,LOW);
   d41c4:	2100      	movs	r1, #0
   d41c6:	2005      	movs	r0, #5
   d41c8:	f002 fb57 	bl	d687a <digitalWrite>
    digitalWrite(D6,LOW);
   d41cc:	2100      	movs	r1, #0
   d41ce:	2006      	movs	r0, #6
   d41d0:	f002 fb53 	bl	d687a <digitalWrite>
    digitalWrite(D7,HIGH);
   d41d4:	2101      	movs	r1, #1
   d41d6:	2007      	movs	r0, #7
   d41d8:	f002 fb4f 	bl	d687a <digitalWrite>
  }
  if (200 <= proxValue && proxValue <= 1000 ){
   d41dc:	f1a6 03c8 	sub.w	r3, r6, #200	; 0xc8
   d41e0:	f5b3 7f48 	cmp.w	r3, #800	; 0x320
   d41e4:	d80b      	bhi.n	d41fe <loop+0xda>
    digitalWrite(D6,LOW);
   d41e6:	2100      	movs	r1, #0
   d41e8:	2006      	movs	r0, #6
   d41ea:	f002 fb46 	bl	d687a <digitalWrite>
    digitalWrite(D5,HIGH);
   d41ee:	2101      	movs	r1, #1
   d41f0:	2005      	movs	r0, #5
   d41f2:	f002 fb42 	bl	d687a <digitalWrite>
    digitalWrite(D7,LOW);
   d41f6:	2100      	movs	r1, #0
   d41f8:	2007      	movs	r0, #7
   d41fa:	f002 fb3e 	bl	d687a <digitalWrite>
  }
  if (proxValue > 1000){
   d41fe:	f5b6 7f7a 	cmp.w	r6, #1000	; 0x3e8
   d4202:	dd0d      	ble.n	d4220 <loop+0xfc>
    digitalWrite(D7,LOW);
   d4204:	2100      	movs	r1, #0
   d4206:	2007      	movs	r0, #7
   d4208:	f002 fb37 	bl	d687a <digitalWrite>
    digitalWrite(D6,HIGH);
   d420c:	2101      	movs	r1, #1
   d420e:	2006      	movs	r0, #6
   d4210:	f002 fb33 	bl	d687a <digitalWrite>
// digitalWrite(D5,HIGH);
// digitalWrite(D6,HIGH);
// digitalWrite(D4,HIGH);
  // The core of your code will likely live here.

   d4214:	e8bd 4070 	ldmia.w	sp!, {r4, r5, r6, lr}
    digitalWrite(D5,LOW);
   d4218:	2100      	movs	r1, #0
   d421a:	2005      	movs	r0, #5
   d421c:	f002 bb2d 	b.w	d687a <digitalWrite>
   d4220:	bd70      	pop	{r4, r5, r6, pc}
   d4222:	bf00      	nop
   d4224:	2003e5d0 	.word	0x2003e5d0
   d4228:	2003e640 	.word	0x2003e640
   d422c:	000d6a1c 	.word	0x000d6a1c
   d4230:	000d6a2e 	.word	0x000d6a2e
   d4234:	000d6a3e 	.word	0x000d6a3e

000d4238 <_GLOBAL__sub_I_SystemMode>:
   d4238:	b538      	push	{r3, r4, r5, lr}
              error_(SYSTEM_ERROR_NONE) {
   d423a:	4c11      	ldr	r4, [pc, #68]	; (d4280 <_GLOBAL__sub_I_SystemMode+0x48>)
    SleepResult() {}
   d423c:	4b11      	ldr	r3, [pc, #68]	; (d4284 <_GLOBAL__sub_I_SystemMode+0x4c>)
   d423e:	60a3      	str	r3, [r4, #8]
              error_(SYSTEM_ERROR_NONE) {
   d4240:	2500      	movs	r5, #0
   d4242:	6025      	str	r5, [r4, #0]
   d4244:	80a5      	strh	r5, [r4, #4]
    SleepResult() {}
   d4246:	71a5      	strb	r5, [r4, #6]
public:

    SystemClass(System_Mode_TypeDef mode = DEFAULT) {
        set_system_mode(mode);
   d4248:	2003      	movs	r0, #3
   d424a:	f001 fca5 	bl	d5b98 <set_system_mode>
SYSTEM_MODE(MANUAL);
   d424e:	4a0e      	ldr	r2, [pc, #56]	; (d4288 <_GLOBAL__sub_I_SystemMode+0x50>)
   d4250:	490e      	ldr	r1, [pc, #56]	; (d428c <_GLOBAL__sub_I_SystemMode+0x54>)
   d4252:	4620      	mov	r0, r4
OledWingAdafruit display;
   d4254:	4c0e      	ldr	r4, [pc, #56]	; (d4290 <_GLOBAL__sub_I_SystemMode+0x58>)
SYSTEM_MODE(MANUAL);
   d4256:	f002 fb7d 	bl	d6954 <__aeabi_atexit>
SYSTEM_THREAD(ENABLED);
   d425a:	4629      	mov	r1, r5
   d425c:	2001      	movs	r0, #1
   d425e:	f001 fcab 	bl	d5bb8 <system_thread_set_state>
OledWingAdafruit display;
   d4262:	2107      	movs	r1, #7
   d4264:	4620      	mov	r0, r4
   d4266:	f000 fc55 	bl	d4b14 <_ZN16OledWingAdafruitC1Ei>
   d426a:	4620      	mov	r0, r4
   d426c:	4a06      	ldr	r2, [pc, #24]	; (d4288 <_GLOBAL__sub_I_SystemMode+0x50>)
   d426e:	4909      	ldr	r1, [pc, #36]	; (d4294 <_GLOBAL__sub_I_SystemMode+0x5c>)
   d4270:	f002 fb70 	bl	d6954 <__aeabi_atexit>
   d4274:	e8bd 4038 	ldmia.w	sp!, {r3, r4, r5, lr}
VCNL4040 proximitySensor;
   d4278:	4807      	ldr	r0, [pc, #28]	; (d4298 <_GLOBAL__sub_I_SystemMode+0x60>)
   d427a:	f000 bd36 	b.w	d4cea <_ZN8VCNL4040C1Ev>
   d427e:	bf00      	nop
   d4280:	2003e5c4 	.word	0x2003e5c4
   d4284:	ffff0000 	.word	0xffff0000
   d4288:	2003e5c0 	.word	0x2003e5c0
   d428c:	000d40c1 	.word	0x000d40c1
   d4290:	2003e5d0 	.word	0x2003e5d0
   d4294:	000d4ae1 	.word	0x000d4ae1
   d4298:	2003e640 	.word	0x2003e640

000d429c <_ZN8particle11SPISettingsD1Ev>:
  SPISettings()
  {
  }

  virtual ~SPISettings() {
  }
   d429c:	4770      	bx	lr

000d429e <_ZN8particle11SPISettingsD0Ev>:
  virtual ~SPISettings() {
   d429e:	b510      	push	{r4, lr}
  }
   d42a0:	2110      	movs	r1, #16
  virtual ~SPISettings() {
   d42a2:	4604      	mov	r4, r0
  }
   d42a4:	f002 fb5b 	bl	d695e <_ZdlPvj>
   d42a8:	4620      	mov	r0, r4
   d42aa:	bd10      	pop	{r4, pc}

000d42ac <_ZN5Print6printfEPKcz>:
    size_t printf(const char* format, ...) __attribute__ ((format(printf, 2, 3)))
   d42ac:	b40e      	push	{r1, r2, r3}
   d42ae:	b503      	push	{r0, r1, lr}
   d42b0:	ab03      	add	r3, sp, #12
        auto r = this->vprintf(false, format, args);
   d42b2:	2100      	movs	r1, #0
    size_t printf(const char* format, ...) __attribute__ ((format(printf, 2, 3)))
   d42b4:	f853 2b04 	ldr.w	r2, [r3], #4
        va_start(args, format);
   d42b8:	9301      	str	r3, [sp, #4]
        auto r = this->vprintf(false, format, args);
   d42ba:	f001 feb4 	bl	d6026 <_ZN5Print7vprintfEbPKcSt9__va_list>
    }
   d42be:	b002      	add	sp, #8
   d42c0:	f85d eb04 	ldr.w	lr, [sp], #4
   d42c4:	b003      	add	sp, #12
   d42c6:	4770      	bx	lr

000d42c8 <_ZNK8particle11SPISettings7printToER5Print>:
  bool operator!=(const SPISettings& other) const
  {
    return !(other == *this);
  }

  virtual size_t printTo(Print& p) const
   d42c8:	b573      	push	{r0, r1, r4, r5, r6, lr}
   d42ca:	4604      	mov	r4, r0
   d42cc:	4608      	mov	r0, r1
  {
    if (default_ && clock_ == 0)
   d42ce:	7922      	ldrb	r2, [r4, #4]
   d42d0:	68a3      	ldr	r3, [r4, #8]
   d42d2:	b132      	cbz	r2, d42e2 <_ZNK8particle11SPISettings7printToER5Print+0x1a>
   d42d4:	b9a3      	cbnz	r3, d4300 <_ZNK8particle11SPISettings7printToER5Print+0x38>
      return p.print("<SPISettings default>");
   d42d6:	490b      	ldr	r1, [pc, #44]	; (d4304 <_ZNK8particle11SPISettings7printToER5Print+0x3c>)
    else
      return p.printf("<SPISettings %s%u %s MODE%u>", default_ ? "default " : "", (unsigned int)clock_,
          bitOrder_ == MSBFIRST ? "MSB" : "LSB", (unsigned int)dataMode_);
  }
   d42d8:	b002      	add	sp, #8
   d42da:	e8bd 4070 	ldmia.w	sp!, {r4, r5, r6, lr}
      return p.print("<SPISettings default>");
   d42de:	f001 be67 	b.w	d5fb0 <_ZN5Print5printEPKc>
      return p.printf("<SPISettings %s%u %s MODE%u>", default_ ? "default " : "", (unsigned int)clock_,
   d42e2:	4a09      	ldr	r2, [pc, #36]	; (d4308 <_ZNK8particle11SPISettings7printToER5Print+0x40>)
   d42e4:	7b26      	ldrb	r6, [r4, #12]
   d42e6:	4d09      	ldr	r5, [pc, #36]	; (d430c <_ZNK8particle11SPISettings7printToER5Print+0x44>)
   d42e8:	4909      	ldr	r1, [pc, #36]	; (d4310 <_ZNK8particle11SPISettings7printToER5Print+0x48>)
   d42ea:	7b64      	ldrb	r4, [r4, #13]
   d42ec:	2e01      	cmp	r6, #1
   d42ee:	bf18      	it	ne
   d42f0:	4629      	movne	r1, r5
   d42f2:	e9cd 1400 	strd	r1, r4, [sp]
   d42f6:	4907      	ldr	r1, [pc, #28]	; (d4314 <_ZNK8particle11SPISettings7printToER5Print+0x4c>)
   d42f8:	f7ff ffd8 	bl	d42ac <_ZN5Print6printfEPKcz>
  }
   d42fc:	b002      	add	sp, #8
   d42fe:	bd70      	pop	{r4, r5, r6, pc}
      return p.printf("<SPISettings %s%u %s MODE%u>", default_ ? "default " : "", (unsigned int)clock_,
   d4300:	4a05      	ldr	r2, [pc, #20]	; (d4318 <_ZNK8particle11SPISettings7printToER5Print+0x50>)
   d4302:	e7ef      	b.n	d42e4 <_ZNK8particle11SPISettings7printToER5Print+0x1c>
   d4304:	000d6a61 	.word	0x000d6a61
   d4308:	000d6a3d 	.word	0x000d6a3d
   d430c:	000d6a5d 	.word	0x000d6a5d
   d4310:	000d6a59 	.word	0x000d6a59
   d4314:	000d6a77 	.word	0x000d6a77
   d4318:	000d6a50 	.word	0x000d6a50

000d431c <_ZN12Adafruit_GFX9writeLineEsssst>:
    @param    y1  End point y coordinate
    @param    color 16-bit 5-6-5 Color to draw with
*/
/**************************************************************************/
void Adafruit_GFX::writeLine(int16_t x0, int16_t y0, int16_t x1, int16_t y1,
        uint16_t color) {
   d431c:	e92d 4ff0 	stmdb	sp!, {r4, r5, r6, r7, r8, r9, sl, fp, lr}
   d4320:	b085      	sub	sp, #20
   d4322:	461f      	mov	r7, r3
   d4324:	f9bd 8038 	ldrsh.w	r8, [sp, #56]	; 0x38
   d4328:	f8bd 303c 	ldrh.w	r3, [sp, #60]	; 0x3c
#if defined(ESP8266)
    yield();
#endif
    int16_t steep = abs(y1 - y0) > abs(x1 - x0);
   d432c:	eba8 0902 	sub.w	r9, r8, r2
   d4330:	eba7 0a01 	sub.w	sl, r7, r1
   d4334:	f1b9 0f00 	cmp.w	r9, #0
   d4338:	bfb8      	it	lt
   d433a:	f1c9 0900 	rsblt	r9, r9, #0
   d433e:	f1ba 0f00 	cmp.w	sl, #0
   d4342:	bfb8      	it	lt
   d4344:	f1ca 0a00 	rsblt	sl, sl, #0
    if (steep) {
   d4348:	45d1      	cmp	r9, sl
        uint16_t color) {
   d434a:	4683      	mov	fp, r0
   d434c:	460c      	mov	r4, r1
   d434e:	4615      	mov	r5, r2
    if (steep) {
   d4350:	dd04      	ble.n	d435c <_ZN12Adafruit_GFX9writeLineEsssst+0x40>
   d4352:	463a      	mov	r2, r7
        _swap_int16_t(x0, y0);
   d4354:	462c      	mov	r4, r5
        _swap_int16_t(x1, y1);
   d4356:	4647      	mov	r7, r8
        _swap_int16_t(x0, y0);
   d4358:	460d      	mov	r5, r1
        _swap_int16_t(x1, y1);
   d435a:	4690      	mov	r8, r2
    }

    if (x0 > x1) {
   d435c:	42bc      	cmp	r4, r7
   d435e:	dd05      	ble.n	d436c <_ZN12Adafruit_GFX9writeLineEsssst+0x50>
   d4360:	462a      	mov	r2, r5
        _swap_int16_t(x0, x1);
        _swap_int16_t(y0, y1);
   d4362:	4645      	mov	r5, r8
   d4364:	4690      	mov	r8, r2
    if (x0 > x1) {
   d4366:	4622      	mov	r2, r4
   d4368:	463c      	mov	r4, r7
   d436a:	4617      	mov	r7, r2
    }

    int16_t dx, dy;
    dx = x1 - x0;
   d436c:	1b3e      	subs	r6, r7, r4
   d436e:	b2b2      	uxth	r2, r6
   d4370:	9200      	str	r2, [sp, #0]
    dy = abs(y1 - y0);
   d4372:	eba8 0205 	sub.w	r2, r8, r5
   d4376:	2a00      	cmp	r2, #0
   d4378:	bfb8      	it	lt
   d437a:	4252      	neglt	r2, r2
   d437c:	9201      	str	r2, [sp, #4]

    int16_t err = dx / 2;
   d437e:	f3c6 32c0 	ubfx	r2, r6, #15, #1
   d4382:	fa02 f686 	sxtah	r6, r2, r6
    int16_t ystep;

    if (y0 < y1) {
        ystep = 1;
    } else {
        ystep = -1;
   d4386:	4545      	cmp	r5, r8
   d4388:	bfb4      	ite	lt
   d438a:	2201      	movlt	r2, #1
   d438c:	f04f 32ff 	movge.w	r2, #4294967295
    int16_t err = dx / 2;
   d4390:	1076      	asrs	r6, r6, #1
        ystep = -1;
   d4392:	9202      	str	r2, [sp, #8]
    }

    for (; x0<=x1; x0++) {
   d4394:	42bc      	cmp	r4, r7
   d4396:	dc1c      	bgt.n	d43d2 <_ZN12Adafruit_GFX9writeLineEsssst+0xb6>
        if (steep) {
   d4398:	f8db 2000 	ldr.w	r2, [fp]
            writePixel(y0, x0, color);
   d439c:	9303      	str	r3, [sp, #12]
        if (steep) {
   d439e:	45d1      	cmp	r9, sl
            writePixel(y0, x0, color);
   d43a0:	f8d2 8018 	ldr.w	r8, [r2, #24]
   d43a4:	bfc7      	ittee	gt
   d43a6:	4629      	movgt	r1, r5
   d43a8:	4622      	movgt	r2, r4
        } else {
            writePixel(x0, y0, color);
   d43aa:	462a      	movle	r2, r5
   d43ac:	4621      	movle	r1, r4
   d43ae:	4658      	mov	r0, fp
   d43b0:	47c0      	blx	r8
        }
        err -= dy;
   d43b2:	9a01      	ldr	r2, [sp, #4]
            writePixel(x0, y0, color);
   d43b4:	9b03      	ldr	r3, [sp, #12]
        err -= dy;
   d43b6:	1ab6      	subs	r6, r6, r2
   d43b8:	b2b1      	uxth	r1, r6
   d43ba:	b236      	sxth	r6, r6
        if (err < 0) {
   d43bc:	2e00      	cmp	r6, #0
   d43be:	da05      	bge.n	d43cc <_ZN12Adafruit_GFX9writeLineEsssst+0xb0>
            y0 += ystep;
   d43c0:	9a02      	ldr	r2, [sp, #8]
   d43c2:	4415      	add	r5, r2
            err += dx;
   d43c4:	9a00      	ldr	r2, [sp, #0]
   d43c6:	1856      	adds	r6, r2, r1
            y0 += ystep;
   d43c8:	b22d      	sxth	r5, r5
            err += dx;
   d43ca:	b236      	sxth	r6, r6
    for (; x0<=x1; x0++) {
   d43cc:	3401      	adds	r4, #1
   d43ce:	b224      	sxth	r4, r4
   d43d0:	e7e0      	b.n	d4394 <_ZN12Adafruit_GFX9writeLineEsssst+0x78>
        }
    }
}
   d43d2:	b005      	add	sp, #20
   d43d4:	e8bd 8ff0 	ldmia.w	sp!, {r4, r5, r6, r7, r8, r9, sl, fp, pc}

000d43d8 <_ZN12Adafruit_GFX10startWriteEv>:
/*!
   @brief    Start a display-writing routine, overwrite in subclasses.
*/
/**************************************************************************/
void Adafruit_GFX::startWrite(){
}
   d43d8:	4770      	bx	lr

000d43da <_ZN12Adafruit_GFX10writePixelEsst>:
    @param   x   x coordinate
    @param   y   y coordinate
   @param    color 16-bit 5-6-5 Color to fill with
*/
/**************************************************************************/
void Adafruit_GFX::writePixel(int16_t x, int16_t y, uint16_t color){
   d43da:	b410      	push	{r4}
    drawPixel(x, y, color);
   d43dc:	6804      	ldr	r4, [r0, #0]
   d43de:	6924      	ldr	r4, [r4, #16]
   d43e0:	46a4      	mov	ip, r4
}
   d43e2:	f85d 4b04 	ldr.w	r4, [sp], #4
    drawPixel(x, y, color);
   d43e6:	4760      	bx	ip

000d43e8 <_ZN12Adafruit_GFX14writeFastVLineEssst>:
    @param    h   Height in pixels
   @param    color 16-bit 5-6-5 Color to fill with
*/
/**************************************************************************/
void Adafruit_GFX::writeFastVLine(int16_t x, int16_t y,
        int16_t h, uint16_t color) {
   d43e8:	b430      	push	{r4, r5}
    // Overwrite in subclasses if startWrite is defined!
    // Can be just writeLine(x, y, x, y+h-1, color);
    // or writeFillRect(x, y, 1, h, color);
    drawFastVLine(x, y, h, color);
   d43ea:	6804      	ldr	r4, [r0, #0]
        int16_t h, uint16_t color) {
   d43ec:	f8bd 5008 	ldrh.w	r5, [sp, #8]
    drawFastVLine(x, y, h, color);
   d43f0:	9502      	str	r5, [sp, #8]
   d43f2:	6ba4      	ldr	r4, [r4, #56]	; 0x38
   d43f4:	46a4      	mov	ip, r4
}
   d43f6:	bc30      	pop	{r4, r5}
    drawFastVLine(x, y, h, color);
   d43f8:	4760      	bx	ip

000d43fa <_ZN12Adafruit_GFX14writeFastHLineEssst>:
    @param    w   Width in pixels
   @param    color 16-bit 5-6-5 Color to fill with
*/
/**************************************************************************/
void Adafruit_GFX::writeFastHLine(int16_t x, int16_t y,
        int16_t w, uint16_t color) {
   d43fa:	b430      	push	{r4, r5}
    // Overwrite in subclasses if startWrite is defined!
    // Example: writeLine(x, y, x+w-1, y, color);
    // or writeFillRect(x, y, w, 1, color);
    drawFastHLine(x, y, w, color);
   d43fc:	6804      	ldr	r4, [r0, #0]
        int16_t w, uint16_t color) {
   d43fe:	f8bd 5008 	ldrh.w	r5, [sp, #8]
    drawFastHLine(x, y, w, color);
   d4402:	9502      	str	r5, [sp, #8]
   d4404:	6be4      	ldr	r4, [r4, #60]	; 0x3c
   d4406:	46a4      	mov	ip, r4
}
   d4408:	bc30      	pop	{r4, r5}
    drawFastHLine(x, y, w, color);
   d440a:	4760      	bx	ip

000d440c <_ZN12Adafruit_GFX13writeFillRectEsssst>:
    @param    h   Height in pixels
   @param    color 16-bit 5-6-5 Color to fill with
*/
/**************************************************************************/
void Adafruit_GFX::writeFillRect(int16_t x, int16_t y, int16_t w, int16_t h,
        uint16_t color) {
   d440c:	b470      	push	{r4, r5, r6}
   d440e:	f9bd 500c 	ldrsh.w	r5, [sp, #12]
   d4412:	f8bd 6010 	ldrh.w	r6, [sp, #16]
    // Overwrite in subclasses if desired!
    fillRect(x,y,w,h,color);
   d4416:	6804      	ldr	r4, [r0, #0]
   d4418:	e9cd 5603 	strd	r5, r6, [sp, #12]
   d441c:	6c24      	ldr	r4, [r4, #64]	; 0x40
   d441e:	46a4      	mov	ip, r4
}
   d4420:	bc70      	pop	{r4, r5, r6}
    fillRect(x,y,w,h,color);
   d4422:	4760      	bx	ip

000d4424 <_ZN12Adafruit_GFX13drawFastVLineEssst>:
    @param    h   Height in pixels
   @param    color 16-bit 5-6-5 Color to fill with
*/
/**************************************************************************/
void Adafruit_GFX::drawFastVLine(int16_t x, int16_t y,
        int16_t h, uint16_t color) {
   d4424:	e92d 41f3 	stmdb	sp!, {r0, r1, r4, r5, r6, r7, r8, lr}
   d4428:	461c      	mov	r4, r3
    startWrite();
   d442a:	6803      	ldr	r3, [r0, #0]
        int16_t h, uint16_t color) {
   d442c:	f8bd 8020 	ldrh.w	r8, [sp, #32]
    startWrite();
   d4430:	695b      	ldr	r3, [r3, #20]
        int16_t h, uint16_t color) {
   d4432:	4605      	mov	r5, r0
   d4434:	4616      	mov	r6, r2
    writeLine(x, y, x, y+h-1, color);
   d4436:	3c01      	subs	r4, #1
   d4438:	4434      	add	r4, r6
        int16_t h, uint16_t color) {
   d443a:	460f      	mov	r7, r1
    writeLine(x, y, x, y+h-1, color);
   d443c:	b224      	sxth	r4, r4
    startWrite();
   d443e:	4798      	blx	r3
    writeLine(x, y, x, y+h-1, color);
   d4440:	682b      	ldr	r3, [r5, #0]
   d4442:	f8cd 8004 	str.w	r8, [sp, #4]
   d4446:	9400      	str	r4, [sp, #0]
   d4448:	6a9c      	ldr	r4, [r3, #40]	; 0x28
   d444a:	4628      	mov	r0, r5
   d444c:	463b      	mov	r3, r7
   d444e:	4632      	mov	r2, r6
   d4450:	4639      	mov	r1, r7
   d4452:	47a0      	blx	r4
    endWrite();
   d4454:	682b      	ldr	r3, [r5, #0]
   d4456:	6adb      	ldr	r3, [r3, #44]	; 0x2c
   d4458:	4628      	mov	r0, r5
}
   d445a:	b002      	add	sp, #8
   d445c:	e8bd 41f0 	ldmia.w	sp!, {r4, r5, r6, r7, r8, lr}
    endWrite();
   d4460:	4718      	bx	r3

000d4462 <_ZN12Adafruit_GFX13drawFastHLineEssst>:
    @param    w   Width in pixels
   @param    color 16-bit 5-6-5 Color to fill with
*/
/**************************************************************************/
void Adafruit_GFX::drawFastHLine(int16_t x, int16_t y,
        int16_t w, uint16_t color) {
   d4462:	e92d 41f3 	stmdb	sp!, {r0, r1, r4, r5, r6, r7, r8, lr}
   d4466:	461d      	mov	r5, r3
    startWrite();
   d4468:	6803      	ldr	r3, [r0, #0]
        int16_t w, uint16_t color) {
   d446a:	f8bd 8020 	ldrh.w	r8, [sp, #32]
    startWrite();
   d446e:	695b      	ldr	r3, [r3, #20]
        int16_t w, uint16_t color) {
   d4470:	4604      	mov	r4, r0
   d4472:	4617      	mov	r7, r2
   d4474:	460e      	mov	r6, r1
    startWrite();
   d4476:	4798      	blx	r3
    writeLine(x, y, x+w-1, y, color);
   d4478:	e9cd 7800 	strd	r7, r8, [sp]
   d447c:	6822      	ldr	r2, [r4, #0]
   d447e:	1e6b      	subs	r3, r5, #1
   d4480:	4433      	add	r3, r6
   d4482:	6a95      	ldr	r5, [r2, #40]	; 0x28
   d4484:	4620      	mov	r0, r4
   d4486:	b21b      	sxth	r3, r3
   d4488:	463a      	mov	r2, r7
   d448a:	4631      	mov	r1, r6
   d448c:	47a8      	blx	r5
    endWrite();
   d448e:	6823      	ldr	r3, [r4, #0]
   d4490:	6adb      	ldr	r3, [r3, #44]	; 0x2c
   d4492:	4620      	mov	r0, r4
}
   d4494:	b002      	add	sp, #8
   d4496:	e8bd 41f0 	ldmia.w	sp!, {r4, r5, r6, r7, r8, lr}
    endWrite();
   d449a:	4718      	bx	r3

000d449c <_ZN12Adafruit_GFX8fillRectEsssst>:
    @param    h   Height in pixels
   @param    color 16-bit 5-6-5 Color to fill with
*/
/**************************************************************************/
void Adafruit_GFX::fillRect(int16_t x, int16_t y, int16_t w, int16_t h,
        uint16_t color) {
   d449c:	e92d 47f3 	stmdb	sp!, {r0, r1, r4, r5, r6, r7, r8, r9, sl, lr}
   d44a0:	461e      	mov	r6, r3
    startWrite();
   d44a2:	6803      	ldr	r3, [r0, #0]
        uint16_t color) {
   d44a4:	f9bd 9028 	ldrsh.w	r9, [sp, #40]	; 0x28
    startWrite();
   d44a8:	695b      	ldr	r3, [r3, #20]
        uint16_t color) {
   d44aa:	f8bd 802c 	ldrh.w	r8, [sp, #44]	; 0x2c
   d44ae:	460c      	mov	r4, r1
   d44b0:	4605      	mov	r5, r0
   d44b2:	4617      	mov	r7, r2
    startWrite();
   d44b4:	4798      	blx	r3
    for (int16_t i=x; i<x+w; i++) {
   d44b6:	4426      	add	r6, r4
   d44b8:	42b4      	cmp	r4, r6
   d44ba:	682b      	ldr	r3, [r5, #0]
   d44bc:	da0b      	bge.n	d44d6 <_ZN12Adafruit_GFX8fillRectEsssst+0x3a>
        writeFastVLine(i, y, h, color);
   d44be:	f8cd 8000 	str.w	r8, [sp]
   d44c2:	f8d3 a020 	ldr.w	sl, [r3, #32]
   d44c6:	4621      	mov	r1, r4
   d44c8:	464b      	mov	r3, r9
   d44ca:	463a      	mov	r2, r7
   d44cc:	4628      	mov	r0, r5
   d44ce:	3401      	adds	r4, #1
   d44d0:	47d0      	blx	sl
    for (int16_t i=x; i<x+w; i++) {
   d44d2:	b224      	sxth	r4, r4
   d44d4:	e7f0      	b.n	d44b8 <_ZN12Adafruit_GFX8fillRectEsssst+0x1c>
    }
    endWrite();
   d44d6:	6adb      	ldr	r3, [r3, #44]	; 0x2c
   d44d8:	4628      	mov	r0, r5
}
   d44da:	b002      	add	sp, #8
   d44dc:	e8bd 47f0 	ldmia.w	sp!, {r4, r5, r6, r7, r8, r9, sl, lr}
    endWrite();
   d44e0:	4718      	bx	r3

000d44e2 <_ZN12Adafruit_GFX10fillScreenEt>:
/*!
   @brief    Fill the screen completely with one color. Update in subclasses if desired!
    @param    color 16-bit 5-6-5 Color to fill with
*/
/**************************************************************************/
void Adafruit_GFX::fillScreen(uint16_t color) {
   d44e2:	b513      	push	{r0, r1, r4, lr}
    fillRect(0, 0, _width, _height, color);
   d44e4:	6802      	ldr	r2, [r0, #0]
   d44e6:	9101      	str	r1, [sp, #4]
   d44e8:	f9b0 100e 	ldrsh.w	r1, [r0, #14]
   d44ec:	9100      	str	r1, [sp, #0]
   d44ee:	6c14      	ldr	r4, [r2, #64]	; 0x40
   d44f0:	f9b0 300c 	ldrsh.w	r3, [r0, #12]
   d44f4:	2200      	movs	r2, #0
   d44f6:	4611      	mov	r1, r2
   d44f8:	47a0      	blx	r4
}
   d44fa:	b002      	add	sp, #8
   d44fc:	bd10      	pop	{r4, pc}

000d44fe <_ZN12Adafruit_GFX8drawRectEsssst>:
    @param    h   Height in pixels
    @param    color 16-bit 5-6-5 Color to draw with
*/
/**************************************************************************/
void Adafruit_GFX::drawRect(int16_t x, int16_t y, int16_t w, int16_t h,
        uint16_t color) {
   d44fe:	e92d 47f3 	stmdb	sp!, {r0, r1, r4, r5, r6, r7, r8, r9, sl, lr}
   d4502:	461d      	mov	r5, r3
    startWrite();
   d4504:	6803      	ldr	r3, [r0, #0]
        uint16_t color) {
   d4506:	f8bd 802c 	ldrh.w	r8, [sp, #44]	; 0x2c
    startWrite();
   d450a:	695b      	ldr	r3, [r3, #20]
        uint16_t color) {
   d450c:	f9bd 9028 	ldrsh.w	r9, [sp, #40]	; 0x28
   d4510:	4604      	mov	r4, r0
   d4512:	460f      	mov	r7, r1
   d4514:	4616      	mov	r6, r2
    startWrite();
   d4516:	4798      	blx	r3
    writeFastHLine(x, y, w, color);
   d4518:	6823      	ldr	r3, [r4, #0]
   d451a:	f8cd 8000 	str.w	r8, [sp]
   d451e:	f8d3 a024 	ldr.w	sl, [r3, #36]	; 0x24
   d4522:	4632      	mov	r2, r6
   d4524:	462b      	mov	r3, r5
   d4526:	4639      	mov	r1, r7
   d4528:	4620      	mov	r0, r4
   d452a:	47d0      	blx	sl
    writeFastHLine(x, y+h-1, w, color);
   d452c:	6823      	ldr	r3, [r4, #0]
   d452e:	f8cd 8000 	str.w	r8, [sp]
   d4532:	f109 32ff 	add.w	r2, r9, #4294967295
   d4536:	4432      	add	r2, r6
   d4538:	f8d3 a024 	ldr.w	sl, [r3, #36]	; 0x24
   d453c:	4639      	mov	r1, r7
   d453e:	462b      	mov	r3, r5
   d4540:	4620      	mov	r0, r4
   d4542:	b212      	sxth	r2, r2
   d4544:	47d0      	blx	sl
    writeFastVLine(x, y, h, color);
   d4546:	6823      	ldr	r3, [r4, #0]
   d4548:	f8cd 8000 	str.w	r8, [sp]
   d454c:	f8d3 a020 	ldr.w	sl, [r3, #32]
   d4550:	4632      	mov	r2, r6
   d4552:	464b      	mov	r3, r9
   d4554:	4639      	mov	r1, r7
   d4556:	4620      	mov	r0, r4
   d4558:	47d0      	blx	sl
    writeFastVLine(x+w-1, y, h, color);
   d455a:	1e6b      	subs	r3, r5, #1
   d455c:	19d9      	adds	r1, r3, r7
   d455e:	6823      	ldr	r3, [r4, #0]
   d4560:	f8cd 8000 	str.w	r8, [sp]
   d4564:	6a1d      	ldr	r5, [r3, #32]
   d4566:	4620      	mov	r0, r4
   d4568:	464b      	mov	r3, r9
   d456a:	4632      	mov	r2, r6
   d456c:	b209      	sxth	r1, r1
   d456e:	47a8      	blx	r5
    endWrite();
   d4570:	6823      	ldr	r3, [r4, #0]
   d4572:	6adb      	ldr	r3, [r3, #44]	; 0x2c
   d4574:	4620      	mov	r0, r4
}
   d4576:	b002      	add	sp, #8
   d4578:	e8bd 47f0 	ldmia.w	sp!, {r4, r5, r6, r7, r8, r9, sl, lr}
    endWrite();
   d457c:	4718      	bx	r3

000d457e <_ZN12Adafruit_GFX13invertDisplayEb>:
    @param   i  True if you want to invert, false to make 'normal'
*/
/**************************************************************************/
void Adafruit_GFX::invertDisplay(boolean i) {
    // Do nothing, must be subclassed if supported by hardware
}
   d457e:	4770      	bx	lr

000d4580 <_ZN12Adafruit_GFX8drawLineEsssst>:
        uint16_t color) {
   d4580:	e92d 43f7 	stmdb	sp!, {r0, r1, r2, r4, r5, r6, r7, r8, r9, lr}
    if(x0 == x1){
   d4584:	4299      	cmp	r1, r3
        uint16_t color) {
   d4586:	4616      	mov	r6, r2
   d4588:	f9bd 7028 	ldrsh.w	r7, [sp, #40]	; 0x28
   d458c:	f8bd 902c 	ldrh.w	r9, [sp, #44]	; 0x2c
   d4590:	6802      	ldr	r2, [r0, #0]
   d4592:	4680      	mov	r8, r0
   d4594:	460d      	mov	r5, r1
   d4596:	461c      	mov	r4, r3
    if(x0 == x1){
   d4598:	d113      	bne.n	d45c2 <_ZN12Adafruit_GFX8drawLineEsssst+0x42>
        if(y0 > y1) _swap_int16_t(y0, y1);
   d459a:	42be      	cmp	r6, r7
   d459c:	bfc8      	it	gt
   d459e:	4633      	movgt	r3, r6
        drawFastVLine(x0, y0, y1 - y0 + 1, color);
   d45a0:	f8cd 9028 	str.w	r9, [sp, #40]	; 0x28
        if(y0 > y1) _swap_int16_t(y0, y1);
   d45a4:	bfc4      	itt	gt
   d45a6:	463e      	movgt	r6, r7
   d45a8:	461f      	movgt	r7, r3
        drawFastVLine(x0, y0, y1 - y0 + 1, color);
   d45aa:	1c7b      	adds	r3, r7, #1
   d45ac:	6b94      	ldr	r4, [r2, #56]	; 0x38
   d45ae:	1b9b      	subs	r3, r3, r6
        drawFastHLine(x0, y0, x1 - x0 + 1, color);
   d45b0:	b21b      	sxth	r3, r3
   d45b2:	4632      	mov	r2, r6
   d45b4:	4629      	mov	r1, r5
   d45b6:	4640      	mov	r0, r8
   d45b8:	46a4      	mov	ip, r4
}
   d45ba:	b003      	add	sp, #12
   d45bc:	e8bd 43f0 	ldmia.w	sp!, {r4, r5, r6, r7, r8, r9, lr}
        drawFastHLine(x0, y0, x1 - x0 + 1, color);
   d45c0:	4760      	bx	ip
    } else if(y0 == y1){
   d45c2:	42be      	cmp	r6, r7
   d45c4:	d10a      	bne.n	d45dc <_ZN12Adafruit_GFX8drawLineEsssst+0x5c>
        if(x0 > x1) _swap_int16_t(x0, x1);
   d45c6:	4299      	cmp	r1, r3
   d45c8:	bfc2      	ittt	gt
   d45ca:	460b      	movgt	r3, r1
   d45cc:	4625      	movgt	r5, r4
   d45ce:	461c      	movgt	r4, r3
        drawFastHLine(x0, y0, x1 - x0 + 1, color);
   d45d0:	1c63      	adds	r3, r4, #1
   d45d2:	f8cd 9028 	str.w	r9, [sp, #40]	; 0x28
   d45d6:	6bd4      	ldr	r4, [r2, #60]	; 0x3c
   d45d8:	1b5b      	subs	r3, r3, r5
   d45da:	e7e9      	b.n	d45b0 <_ZN12Adafruit_GFX8drawLineEsssst+0x30>
        startWrite();
   d45dc:	6953      	ldr	r3, [r2, #20]
   d45de:	4798      	blx	r3
        writeLine(x0, y0, x1, y1, color);
   d45e0:	e9cd 7900 	strd	r7, r9, [sp]
   d45e4:	f8d8 3000 	ldr.w	r3, [r8]
   d45e8:	4640      	mov	r0, r8
   d45ea:	6a9f      	ldr	r7, [r3, #40]	; 0x28
   d45ec:	4632      	mov	r2, r6
   d45ee:	4623      	mov	r3, r4
   d45f0:	4629      	mov	r1, r5
   d45f2:	47b8      	blx	r7
        endWrite();
   d45f4:	f8d8 3000 	ldr.w	r3, [r8]
   d45f8:	6adb      	ldr	r3, [r3, #44]	; 0x2c
   d45fa:	4640      	mov	r0, r8
}
   d45fc:	b003      	add	sp, #12
   d45fe:	e8bd 43f0 	ldmia.w	sp!, {r4, r5, r6, r7, r8, r9, lr}
        endWrite();
   d4602:	4718      	bx	r3

000d4604 <_ZN12Adafruit_GFX11setRotationEh>:
    rotation = (x & 3);
   d4604:	f001 0303 	and.w	r3, r1, #3
   d4608:	f9b0 200a 	ldrsh.w	r2, [r0, #10]
   d460c:	7683      	strb	r3, [r0, #26]
    switch(rotation) {
   d460e:	07c9      	lsls	r1, r1, #31
            _width  = WIDTH;
   d4610:	f9b0 3008 	ldrsh.w	r3, [r0, #8]
   d4614:	bf59      	ittee	pl
   d4616:	8183      	strhpl	r3, [r0, #12]
            _height = HEIGHT;
   d4618:	81c2      	strhpl	r2, [r0, #14]
            _width  = HEIGHT;
   d461a:	8182      	strhmi	r2, [r0, #12]
            _height = WIDTH;
   d461c:	81c3      	strhmi	r3, [r0, #14]
}
   d461e:	4770      	bx	lr

000d4620 <_ZN12Adafruit_GFXC1Ess>:
Adafruit_GFX::Adafruit_GFX(int16_t w, int16_t h):
   d4620:	b530      	push	{r4, r5, lr}
WIDTH(w), HEIGHT(h)
   d4622:	8142      	strh	r2, [r0, #10]
    _height   = HEIGHT;
   d4624:	81c2      	strh	r2, [r0, #14]
    textsize_x = textsize_y  = 1;
   d4626:	4a07      	ldr	r2, [pc, #28]	; (d4644 <_ZN12Adafruit_GFXC1Ess+0x24>)
WIDTH(w), HEIGHT(h)
   d4628:	4d07      	ldr	r5, [pc, #28]	; (d4648 <_ZN12Adafruit_GFXC1Ess+0x28>)
   d462a:	8101      	strh	r1, [r0, #8]
    Print() : write_error(0) {}
   d462c:	2400      	movs	r4, #0
    _width    = WIDTH;
   d462e:	8181      	strh	r1, [r0, #12]
    textsize_x = textsize_y  = 1;
   d4630:	f04f 31ff 	mov.w	r1, #4294967295
   d4634:	e9c0 1205 	strd	r1, r2, [r0, #20]
   d4638:	6044      	str	r4, [r0, #4]
WIDTH(w), HEIGHT(h)
   d463a:	6005      	str	r5, [r0, #0]
    cursor_y  = cursor_x    = 0;
   d463c:	6104      	str	r4, [r0, #16]
    _cp437    = false;
   d463e:	7704      	strb	r4, [r0, #28]
    gfxFont   = NULL;
   d4640:	6204      	str	r4, [r0, #32]
}
   d4642:	bd30      	pop	{r4, r5, pc}
   d4644:	01000101 	.word	0x01000101
   d4648:	000d6f9c 	.word	0x000d6f9c

000d464c <_ZN12Adafruit_GFX10drawBitmapEssPKhsst>:
  const uint8_t bitmap[], int16_t w, int16_t h, uint16_t color) {
   d464c:	e92d 4ff0 	stmdb	sp!, {r4, r5, r6, r7, r8, r9, sl, fp, lr}
   d4650:	b089      	sub	sp, #36	; 0x24
   d4652:	e9cd 1202 	strd	r1, r2, [sp, #8]
    startWrite();
   d4656:	6802      	ldr	r2, [r0, #0]
  const uint8_t bitmap[], int16_t w, int16_t h, uint16_t color) {
   d4658:	f9bd 8048 	ldrsh.w	r8, [sp, #72]	; 0x48
   d465c:	9304      	str	r3, [sp, #16]
   d465e:	f9bd 304c 	ldrsh.w	r3, [sp, #76]	; 0x4c
    startWrite();
   d4662:	6952      	ldr	r2, [r2, #20]
  const uint8_t bitmap[], int16_t w, int16_t h, uint16_t color) {
   d4664:	9305      	str	r3, [sp, #20]
   d4666:	f8bd a050 	ldrh.w	sl, [sp, #80]	; 0x50
   d466a:	4604      	mov	r4, r0
    startWrite();
   d466c:	4790      	blx	r2
    int16_t byteWidth = (w + 7) / 8; // Bitmap scanline pad = whole byte
   d466e:	f118 0207 	adds.w	r2, r8, #7
    startWrite();
   d4672:	f04f 0600 	mov.w	r6, #0
    int16_t byteWidth = (w + 7) / 8; // Bitmap scanline pad = whole byte
   d4676:	bf48      	it	mi
   d4678:	f108 020e 	addmi.w	r2, r8, #14
   d467c:	ea4f 0be2 	mov.w	fp, r2, asr #3
    startWrite();
   d4680:	9601      	str	r6, [sp, #4]
    uint8_t byte = 0;
   d4682:	4635      	mov	r5, r6
   d4684:	9b03      	ldr	r3, [sp, #12]
   d4686:	9a01      	ldr	r2, [sp, #4]
    for(int16_t j=0; j<h; j++, y++) {
   d4688:	f9bd 1004 	ldrsh.w	r1, [sp, #4]
   d468c:	189a      	adds	r2, r3, r2
   d468e:	9b05      	ldr	r3, [sp, #20]
   d4690:	428b      	cmp	r3, r1
   d4692:	b212      	sxth	r2, r2
   d4694:	dd27      	ble.n	d46e6 <_ZN12Adafruit_GFX10drawBitmapEssPKhsst+0x9a>
            else      byte   = pgm_read_byte(&bitmap[j * byteWidth + i / 8]);
   d4696:	9b04      	ldr	r3, [sp, #16]
   d4698:	4433      	add	r3, r6
    for(int16_t j=0; j<h; j++, y++) {
   d469a:	f04f 0900 	mov.w	r9, #0
            else      byte   = pgm_read_byte(&bitmap[j * byteWidth + i / 8]);
   d469e:	9306      	str	r3, [sp, #24]
   d46a0:	fa0f f089 	sxth.w	r0, r9
        for(int16_t i=0; i<w; i++) {
   d46a4:	4580      	cmp	r8, r0
   d46a6:	fa1f f189 	uxth.w	r1, r9
   d46aa:	dd17      	ble.n	d46dc <_ZN12Adafruit_GFX10drawBitmapEssPKhsst+0x90>
            if(i & 7) byte <<= 1;
   d46ac:	074f      	lsls	r7, r1, #29
            else      byte   = pgm_read_byte(&bitmap[j * byteWidth + i / 8]);
   d46ae:	bf05      	ittet	eq
   d46b0:	9b06      	ldreq	r3, [sp, #24]
   d46b2:	10c0      	asreq	r0, r0, #3
            if(i & 7) byte <<= 1;
   d46b4:	006d      	lslne	r5, r5, #1
            else      byte   = pgm_read_byte(&bitmap[j * byteWidth + i / 8]);
   d46b6:	5c1d      	ldrbeq	r5, [r3, r0]
            if(i & 7) byte <<= 1;
   d46b8:	bf18      	it	ne
   d46ba:	b2ed      	uxtbne	r5, r5
            if(byte & 0x80) writePixel(x+i, y, color);
   d46bc:	062b      	lsls	r3, r5, #24
   d46be:	d50a      	bpl.n	d46d6 <_ZN12Adafruit_GFX10drawBitmapEssPKhsst+0x8a>
   d46c0:	9b02      	ldr	r3, [sp, #8]
   d46c2:	6820      	ldr	r0, [r4, #0]
   d46c4:	9207      	str	r2, [sp, #28]
   d46c6:	4419      	add	r1, r3
   d46c8:	6983      	ldr	r3, [r0, #24]
   d46ca:	b209      	sxth	r1, r1
   d46cc:	461f      	mov	r7, r3
   d46ce:	4620      	mov	r0, r4
   d46d0:	4653      	mov	r3, sl
   d46d2:	47b8      	blx	r7
   d46d4:	9a07      	ldr	r2, [sp, #28]
        for(int16_t i=0; i<w; i++) {
   d46d6:	f109 0901 	add.w	r9, r9, #1
   d46da:	e7e1      	b.n	d46a0 <_ZN12Adafruit_GFX10drawBitmapEssPKhsst+0x54>
    for(int16_t j=0; j<h; j++, y++) {
   d46dc:	9b01      	ldr	r3, [sp, #4]
   d46de:	3301      	adds	r3, #1
   d46e0:	9301      	str	r3, [sp, #4]
   d46e2:	445e      	add	r6, fp
   d46e4:	e7ce      	b.n	d4684 <_ZN12Adafruit_GFX10drawBitmapEssPKhsst+0x38>
    endWrite();
   d46e6:	6823      	ldr	r3, [r4, #0]
   d46e8:	6adb      	ldr	r3, [r3, #44]	; 0x2c
   d46ea:	4620      	mov	r0, r4
}
   d46ec:	b009      	add	sp, #36	; 0x24
   d46ee:	e8bd 4ff0 	ldmia.w	sp!, {r4, r5, r6, r7, r8, r9, sl, fp, lr}
    endWrite();
   d46f2:	4718      	bx	r3

000d46f4 <_ZN12Adafruit_GFX8drawCharEsshtthh>:
  uint16_t color, uint16_t bg, uint8_t size_x, uint8_t size_y) {
   d46f4:	e92d 4ff0 	stmdb	sp!, {r4, r5, r6, r7, r8, r9, sl, fp, lr}
   d46f8:	ed2d 8b02 	vpush	{d8}
   d46fc:	b091      	sub	sp, #68	; 0x44
   d46fe:	4616      	mov	r6, r2
    if(!gfxFont) { // 'Classic' built-in font
   d4700:	6a02      	ldr	r2, [r0, #32]
  uint16_t color, uint16_t bg, uint8_t size_x, uint8_t size_y) {
   d4702:	f8bd 8074 	ldrh.w	r8, [sp, #116]	; 0x74
   d4706:	f89d 5078 	ldrb.w	r5, [sp, #120]	; 0x78
   d470a:	f89d 407c 	ldrb.w	r4, [sp, #124]	; 0x7c
   d470e:	9103      	str	r1, [sp, #12]
   d4710:	461f      	mov	r7, r3
   d4712:	f8bd 3070 	ldrh.w	r3, [sp, #112]	; 0x70
   d4716:	9304      	str	r3, [sp, #16]
   d4718:	4683      	mov	fp, r0
    if(!gfxFont) { // 'Classic' built-in font
   d471a:	2a00      	cmp	r2, #0
   d471c:	f040 80c5 	bne.w	d48aa <_ZN12Adafruit_GFX8drawCharEsshtthh+0x1b6>
        if((x >= _width)            || // Clip right
   d4720:	f9b0 300c 	ldrsh.w	r3, [r0, #12]
   d4724:	428b      	cmp	r3, r1
   d4726:	f340 814c 	ble.w	d49c2 <_ZN12Adafruit_GFX8drawCharEsshtthh+0x2ce>
   d472a:	f9b0 300e 	ldrsh.w	r3, [r0, #14]
   d472e:	42b3      	cmp	r3, r6
   d4730:	f340 8147 	ble.w	d49c2 <_ZN12Adafruit_GFX8drawCharEsshtthh+0x2ce>
           ((x + 6 * size_x - 1) < 0) || // Clip left
   d4734:	2306      	movs	r3, #6
   d4736:	fb13 1305 	smlabb	r3, r3, r5, r1
           (y >= _height)           || // Clip bottom
   d473a:	2b00      	cmp	r3, #0
   d473c:	f340 8141 	ble.w	d49c2 <_ZN12Adafruit_GFX8drawCharEsshtthh+0x2ce>
           ((y + 8 * size_y - 1) < 0))   // Clip top
   d4740:	eb06 03c4 	add.w	r3, r6, r4, lsl #3
           ((x + 6 * size_x - 1) < 0) || // Clip left
   d4744:	2b00      	cmp	r3, #0
   d4746:	f340 813c 	ble.w	d49c2 <_ZN12Adafruit_GFX8drawCharEsshtthh+0x2ce>
        if(!_cp437 && (c >= 176)) c++; // Handle 'classic' charset behavior
   d474a:	7f03      	ldrb	r3, [r0, #28]
   d474c:	b91b      	cbnz	r3, d4756 <_ZN12Adafruit_GFX8drawCharEsshtthh+0x62>
   d474e:	2faf      	cmp	r7, #175	; 0xaf
   d4750:	bf84      	itt	hi
   d4752:	3701      	addhi	r7, #1
   d4754:	b2ff      	uxtbhi	r7, r7
        startWrite();
   d4756:	f8db 3000 	ldr.w	r3, [fp]
   d475a:	4658      	mov	r0, fp
   d475c:	695b      	ldr	r3, [r3, #20]
   d475e:	4798      	blx	r3
            uint8_t line = pgm_read_byte(&font[c * 5 + i]);
   d4760:	2205      	movs	r2, #5
   d4762:	9209      	str	r2, [sp, #36]	; 0x24
        for(int8_t i=0; i<5; i++ ) { // Char bitmap = 5 columns
   d4764:	2200      	movs	r2, #0
   d4766:	9205      	str	r2, [sp, #20]
            uint8_t line = pgm_read_byte(&font[c * 5 + i]);
   d4768:	4a98      	ldr	r2, [pc, #608]	; (d49cc <_ZN12Adafruit_GFX8drawCharEsshtthh+0x2d8>)
   d476a:	eb07 0387 	add.w	r3, r7, r7, lsl #2
   d476e:	18d3      	adds	r3, r2, r3
   d4770:	930c      	str	r3, [sp, #48]	; 0x30
   d4772:	b2b3      	uxth	r3, r6
   d4774:	9306      	str	r3, [sp, #24]
   d4776:	9a05      	ldr	r2, [sp, #20]
   d4778:	9b0c      	ldr	r3, [sp, #48]	; 0x30
   d477a:	5c9b      	ldrb	r3, [r3, r2]
   d477c:	9307      	str	r3, [sp, #28]
                        writeFillRect(x+i*size_x, y+j*size_y, size_x, size_y, bg);
   d477e:	b2ab      	uxth	r3, r5
   d4780:	930b      	str	r3, [sp, #44]	; 0x2c
   d4782:	f8bd 300c 	ldrh.w	r3, [sp, #12]
   d4786:	9308      	str	r3, [sp, #32]
   d4788:	9b03      	ldr	r3, [sp, #12]
   d478a:	fb02 f905 	mul.w	r9, r2, r5
   d478e:	fa19 f983 	uxtah	r9, r9, r3
   d4792:	fa0f f389 	sxth.w	r3, r9
   d4796:	ee08 3a10 	vmov	s16, r3
   d479a:	2308      	movs	r3, #8
   d479c:	930a      	str	r3, [sp, #40]	; 0x28
                        writePixel(x+i, y+j, bg);
   d479e:	9b03      	ldr	r3, [sp, #12]
   d47a0:	eb02 0a03 	add.w	sl, r2, r3
            for(int8_t j=0; j<8; j++, line >>= 1) {
   d47a4:	f04f 0900 	mov.w	r9, #0
                        writePixel(x+i, y+j, bg);
   d47a8:	fa0f fa8a 	sxth.w	sl, sl
                if(line & 1) {
   d47ac:	9a07      	ldr	r2, [sp, #28]
   d47ae:	f8db 3000 	ldr.w	r3, [fp]
   d47b2:	07d2      	lsls	r2, r2, #31
   d47b4:	d552      	bpl.n	d485c <_ZN12Adafruit_GFX8drawCharEsshtthh+0x168>
                    if(size_x == 1 && size_y == 1)
   d47b6:	2d01      	cmp	r5, #1
   d47b8:	fa1f f289 	uxth.w	r2, r9
   d47bc:	d13e      	bne.n	d483c <_ZN12Adafruit_GFX8drawCharEsshtthh+0x148>
   d47be:	2c01      	cmp	r4, #1
   d47c0:	d13c      	bne.n	d483c <_ZN12Adafruit_GFX8drawCharEsshtthh+0x148>
                        writePixel(x+i, y+j, color);
   d47c2:	699b      	ldr	r3, [r3, #24]
   d47c4:	9906      	ldr	r1, [sp, #24]
   d47c6:	461f      	mov	r7, r3
   d47c8:	9b04      	ldr	r3, [sp, #16]
   d47ca:	440a      	add	r2, r1
                        writePixel(x+i, y+j, bg);
   d47cc:	b212      	sxth	r2, r2
   d47ce:	4651      	mov	r1, sl
   d47d0:	4658      	mov	r0, fp
   d47d2:	47b8      	blx	r7
            for(int8_t j=0; j<8; j++, line >>= 1) {
   d47d4:	f109 0301 	add.w	r3, r9, #1
   d47d8:	fa4f f983 	sxtb.w	r9, r3
   d47dc:	9b07      	ldr	r3, [sp, #28]
   d47de:	085b      	lsrs	r3, r3, #1
   d47e0:	9307      	str	r3, [sp, #28]
   d47e2:	9b0a      	ldr	r3, [sp, #40]	; 0x28
   d47e4:	3b01      	subs	r3, #1
   d47e6:	f013 03ff 	ands.w	r3, r3, #255	; 0xff
   d47ea:	930a      	str	r3, [sp, #40]	; 0x28
   d47ec:	d1de      	bne.n	d47ac <_ZN12Adafruit_GFX8drawCharEsshtthh+0xb8>
        for(int8_t i=0; i<5; i++ ) { // Char bitmap = 5 columns
   d47ee:	9f05      	ldr	r7, [sp, #20]
   d47f0:	3701      	adds	r7, #1
   d47f2:	b27b      	sxtb	r3, r7
   d47f4:	9305      	str	r3, [sp, #20]
   d47f6:	9b09      	ldr	r3, [sp, #36]	; 0x24
   d47f8:	3b01      	subs	r3, #1
   d47fa:	f013 03ff 	ands.w	r3, r3, #255	; 0xff
   d47fe:	9309      	str	r3, [sp, #36]	; 0x24
   d4800:	d1b9      	bne.n	d4776 <_ZN12Adafruit_GFX8drawCharEsshtthh+0x82>
        if(bg != color) { // If opaque, draw vertical line for last column
   d4802:	9b04      	ldr	r3, [sp, #16]
   d4804:	4543      	cmp	r3, r8
   d4806:	d00f      	beq.n	d4828 <_ZN12Adafruit_GFX8drawCharEsshtthh+0x134>
            if(size_x == 1 && size_y == 1) writeFastVLine(x+5, y, 8, bg);
   d4808:	2d01      	cmp	r5, #1
   d480a:	f8db 3000 	ldr.w	r3, [fp]
   d480e:	d13b      	bne.n	d4888 <_ZN12Adafruit_GFX8drawCharEsshtthh+0x194>
   d4810:	2c01      	cmp	r4, #1
   d4812:	d139      	bne.n	d4888 <_ZN12Adafruit_GFX8drawCharEsshtthh+0x194>
   d4814:	9908      	ldr	r1, [sp, #32]
   d4816:	f8cd 8000 	str.w	r8, [sp]
   d481a:	3105      	adds	r1, #5
   d481c:	6a1c      	ldr	r4, [r3, #32]
   d481e:	4632      	mov	r2, r6
   d4820:	2308      	movs	r3, #8
   d4822:	b209      	sxth	r1, r1
   d4824:	4658      	mov	r0, fp
   d4826:	47a0      	blx	r4
        endWrite();
   d4828:	f8db 3000 	ldr.w	r3, [fp]
   d482c:	6adb      	ldr	r3, [r3, #44]	; 0x2c
   d482e:	4658      	mov	r0, fp
}
   d4830:	b011      	add	sp, #68	; 0x44
   d4832:	ecbd 8b02 	vpop	{d8}
   d4836:	e8bd 4ff0 	ldmia.w	sp!, {r4, r5, r6, r7, r8, r9, sl, fp, lr}
        endWrite();
   d483a:	4718      	bx	r3
                        writeFillRect(x+i*size_x, y+j*size_y, size_x, size_y, color);
   d483c:	9906      	ldr	r1, [sp, #24]
   d483e:	fb14 f202 	smulbb	r2, r4, r2
   d4842:	440a      	add	r2, r1
   d4844:	9904      	ldr	r1, [sp, #16]
   d4846:	9101      	str	r1, [sp, #4]
                        writeFillRect(x+i*size_x, y+j*size_y, size_x, size_y, bg);
   d4848:	9400      	str	r4, [sp, #0]
   d484a:	69db      	ldr	r3, [r3, #28]
   d484c:	ee18 1a10 	vmov	r1, s16
   d4850:	461f      	mov	r7, r3
   d4852:	b212      	sxth	r2, r2
   d4854:	462b      	mov	r3, r5
   d4856:	4658      	mov	r0, fp
   d4858:	47b8      	blx	r7
   d485a:	e7bb      	b.n	d47d4 <_ZN12Adafruit_GFX8drawCharEsshtthh+0xe0>
                } else if(bg != color) {
   d485c:	9a04      	ldr	r2, [sp, #16]
   d485e:	4542      	cmp	r2, r8
   d4860:	d0b8      	beq.n	d47d4 <_ZN12Adafruit_GFX8drawCharEsshtthh+0xe0>
                    if(size_x == 1 && size_y == 1)
   d4862:	2d01      	cmp	r5, #1
   d4864:	fa1f f289 	uxth.w	r2, r9
   d4868:	d107      	bne.n	d487a <_ZN12Adafruit_GFX8drawCharEsshtthh+0x186>
   d486a:	2c01      	cmp	r4, #1
   d486c:	d105      	bne.n	d487a <_ZN12Adafruit_GFX8drawCharEsshtthh+0x186>
                        writePixel(x+i, y+j, bg);
   d486e:	699b      	ldr	r3, [r3, #24]
   d4870:	9906      	ldr	r1, [sp, #24]
   d4872:	461f      	mov	r7, r3
   d4874:	440a      	add	r2, r1
   d4876:	4643      	mov	r3, r8
   d4878:	e7a8      	b.n	d47cc <_ZN12Adafruit_GFX8drawCharEsshtthh+0xd8>
                        writeFillRect(x+i*size_x, y+j*size_y, size_x, size_y, bg);
   d487a:	9906      	ldr	r1, [sp, #24]
   d487c:	f8cd 8004 	str.w	r8, [sp, #4]
   d4880:	fb14 f202 	smulbb	r2, r4, r2
   d4884:	440a      	add	r2, r1
   d4886:	e7df      	b.n	d4848 <_ZN12Adafruit_GFX8drawCharEsshtthh+0x154>
            else          writeFillRect(x+5*size_x, y, size_x, 8*size_y, bg);
   d4888:	9a0b      	ldr	r2, [sp, #44]	; 0x2c
   d488a:	f8cd 8004 	str.w	r8, [sp, #4]
   d488e:	eb02 0182 	add.w	r1, r2, r2, lsl #2
   d4892:	9a08      	ldr	r2, [sp, #32]
   d4894:	00e4      	lsls	r4, r4, #3
   d4896:	440a      	add	r2, r1
   d4898:	4611      	mov	r1, r2
   d489a:	9400      	str	r4, [sp, #0]
   d489c:	69dc      	ldr	r4, [r3, #28]
   d489e:	4632      	mov	r2, r6
   d48a0:	462b      	mov	r3, r5
   d48a2:	b209      	sxth	r1, r1
   d48a4:	4658      	mov	r0, fp
   d48a6:	47a0      	blx	r4
        endWrite();
   d48a8:	e7be      	b.n	d4828 <_ZN12Adafruit_GFX8drawCharEsshtthh+0x134>
        c -= (uint8_t)pgm_read_byte(&gfxFont->first);
   d48aa:	7a13      	ldrb	r3, [r2, #8]
    return gfxFont->glyph + c;
   d48ac:	6851      	ldr	r1, [r2, #4]
        uint8_t  *bitmap = pgm_read_bitmap_ptr(gfxFont);
   d48ae:	6812      	ldr	r2, [r2, #0]
   d48b0:	920d      	str	r2, [sp, #52]	; 0x34
        c -= (uint8_t)pgm_read_byte(&gfxFont->first);
   d48b2:	1aff      	subs	r7, r7, r3
    return gfxFont->glyph + c;
   d48b4:	b2ff      	uxtb	r7, r7
   d48b6:	eb01 03c7 	add.w	r3, r1, r7, lsl #3
        uint16_t bo = pgm_read_word(&glyph->bitmapOffset);
   d48ba:	f831 2037 	ldrh.w	r2, [r1, r7, lsl #3]
   d48be:	9206      	str	r2, [sp, #24]
        uint8_t  w  = pgm_read_byte(&glyph->width),
   d48c0:	789a      	ldrb	r2, [r3, #2]
   d48c2:	9209      	str	r2, [sp, #36]	; 0x24
                 h  = pgm_read_byte(&glyph->height);
   d48c4:	78da      	ldrb	r2, [r3, #3]
   d48c6:	920b      	str	r2, [sp, #44]	; 0x2c
        if(size_x > 1 || size_y > 1) {
   d48c8:	2d01      	cmp	r5, #1
        int8_t   xo = pgm_read_byte(&glyph->xOffset),
   d48ca:	f993 2005 	ldrsb.w	r2, [r3, #5]
                 yo = pgm_read_byte(&glyph->yOffset);
   d48ce:	f993 a006 	ldrsb.w	sl, [r3, #6]
        int8_t   xo = pgm_read_byte(&glyph->xOffset),
   d48d2:	920a      	str	r2, [sp, #40]	; 0x28
        if(size_x > 1 || size_y > 1) {
   d48d4:	d801      	bhi.n	d48da <_ZN12Adafruit_GFX8drawCharEsshtthh+0x1e6>
   d48d6:	2c01      	cmp	r4, #1
   d48d8:	d957      	bls.n	d498a <_ZN12Adafruit_GFX8drawCharEsshtthh+0x296>
            xo16 = xo;
   d48da:	f9bd 3028 	ldrsh.w	r3, [sp, #40]	; 0x28
   d48de:	9308      	str	r3, [sp, #32]
            yo16 = yo;
   d48e0:	fa0f f38a 	sxth.w	r3, sl
   d48e4:	9307      	str	r3, [sp, #28]
        startWrite();
   d48e6:	f8db 3000 	ldr.w	r3, [fp]
   d48ea:	4658      	mov	r0, fp
   d48ec:	695b      	ldr	r3, [r3, #20]
   d48ee:	4798      	blx	r3
                        writeFillRect(x+(xo16+xx)*size_x, y+(yo16+yy)*size_y,
   d48f0:	b2b3      	uxth	r3, r6
        uint8_t  xx, yy, bits = 0, bit = 0;
   d48f2:	f04f 0800 	mov.w	r8, #0
                        writeFillRect(x+(xo16+xx)*size_x, y+(yo16+yy)*size_y,
   d48f6:	930e      	str	r3, [sp, #56]	; 0x38
                        writePixel(x+xo+xx, y+yo+yy, color);
   d48f8:	fa1a f386 	uxtah	r3, sl, r6
        uint8_t  xx, yy, bits = 0, bit = 0;
   d48fc:	46c1      	mov	r9, r8
        for(yy=0; yy<h; yy++) {
   d48fe:	4647      	mov	r7, r8
                        writePixel(x+xo+xx, y+yo+yy, color);
   d4900:	930f      	str	r3, [sp, #60]	; 0x3c
        for(yy=0; yy<h; yy++) {
   d4902:	9b0b      	ldr	r3, [sp, #44]	; 0x2c
   d4904:	429f      	cmp	r7, r3
   d4906:	d28f      	bcs.n	d4828 <_ZN12Adafruit_GFX8drawCharEsshtthh+0x134>
                        writeFillRect(x+(xo16+xx)*size_x, y+(yo16+yy)*size_y,
   d4908:	9b07      	ldr	r3, [sp, #28]
   d490a:	9a0e      	ldr	r2, [sp, #56]	; 0x38
   d490c:	443b      	add	r3, r7
   d490e:	fb03 2304 	mla	r3, r3, r4, r2
            for(xx=0; xx<w; xx++) {
   d4912:	2200      	movs	r2, #0
   d4914:	9205      	str	r2, [sp, #20]
                        writePixel(x+xo+xx, y+yo+yy, color);
   d4916:	9a0f      	ldr	r2, [sp, #60]	; 0x3c
                        writeFillRect(x+(xo16+xx)*size_x, y+(yo16+yy)*size_y,
   d4918:	b21b      	sxth	r3, r3
                        writePixel(x+xo+xx, y+yo+yy, color);
   d491a:	eb02 0a07 	add.w	sl, r2, r7
                        writeFillRect(x+(xo16+xx)*size_x, y+(yo16+yy)*size_y,
   d491e:	ee08 3a10 	vmov	s16, r3
                        writePixel(x+xo+xx, y+yo+yy, color);
   d4922:	fa0f fa8a 	sxth.w	sl, sl
                        writeFillRect(x+(xo16+xx)*size_x, y+(yo16+yy)*size_y,
   d4926:	4643      	mov	r3, r8
            for(xx=0; xx<w; xx++) {
   d4928:	9a09      	ldr	r2, [sp, #36]	; 0x24
   d492a:	9905      	ldr	r1, [sp, #20]
   d492c:	4291      	cmp	r1, r2
   d492e:	d241      	bcs.n	d49b4 <_ZN12Adafruit_GFX8drawCharEsshtthh+0x2c0>
                if(!(bit++ & 7)) {
   d4930:	1c5a      	adds	r2, r3, #1
   d4932:	b2d2      	uxtb	r2, r2
   d4934:	075b      	lsls	r3, r3, #29
   d4936:	920c      	str	r2, [sp, #48]	; 0x30
   d4938:	d107      	bne.n	d494a <_ZN12Adafruit_GFX8drawCharEsshtthh+0x256>
                    bits = pgm_read_byte(&bitmap[bo++]);
   d493a:	9b06      	ldr	r3, [sp, #24]
   d493c:	9906      	ldr	r1, [sp, #24]
   d493e:	9a0d      	ldr	r2, [sp, #52]	; 0x34
   d4940:	3301      	adds	r3, #1
   d4942:	b29b      	uxth	r3, r3
   d4944:	f812 9001 	ldrb.w	r9, [r2, r1]
   d4948:	9306      	str	r3, [sp, #24]
                if(bits & 0x80) {
   d494a:	f019 0f80 	tst.w	r9, #128	; 0x80
   d494e:	d012      	beq.n	d4976 <_ZN12Adafruit_GFX8drawCharEsshtthh+0x282>
                    if(size_x == 1 && size_y == 1) {
   d4950:	2d01      	cmp	r5, #1
   d4952:	f8db 3000 	ldr.w	r3, [fp]
   d4956:	f8bd 100c 	ldrh.w	r1, [sp, #12]
   d495a:	d11a      	bne.n	d4992 <_ZN12Adafruit_GFX8drawCharEsshtthh+0x29e>
   d495c:	2c01      	cmp	r4, #1
   d495e:	d118      	bne.n	d4992 <_ZN12Adafruit_GFX8drawCharEsshtthh+0x29e>
                        writePixel(x+xo+xx, y+yo+yy, color);
   d4960:	9a0a      	ldr	r2, [sp, #40]	; 0x28
   d4962:	699b      	ldr	r3, [r3, #24]
   d4964:	4411      	add	r1, r2
   d4966:	9a05      	ldr	r2, [sp, #20]
   d4968:	4411      	add	r1, r2
   d496a:	461e      	mov	r6, r3
   d496c:	4652      	mov	r2, sl
   d496e:	9b04      	ldr	r3, [sp, #16]
   d4970:	b209      	sxth	r1, r1
   d4972:	4658      	mov	r0, fp
   d4974:	47b0      	blx	r6
            for(xx=0; xx<w; xx++) {
   d4976:	9e05      	ldr	r6, [sp, #20]
   d4978:	3601      	adds	r6, #1
   d497a:	b2f3      	uxtb	r3, r6
                bits <<= 1;
   d497c:	ea4f 0949 	mov.w	r9, r9, lsl #1
            for(xx=0; xx<w; xx++) {
   d4980:	9305      	str	r3, [sp, #20]
                bits <<= 1;
   d4982:	fa5f f989 	uxtb.w	r9, r9
                if(!(bit++ & 7)) {
   d4986:	9b0c      	ldr	r3, [sp, #48]	; 0x30
            for(xx=0; xx<w; xx++) {
   d4988:	e7ce      	b.n	d4928 <_ZN12Adafruit_GFX8drawCharEsshtthh+0x234>
        int16_t  xo16 = 0, yo16 = 0;
   d498a:	2300      	movs	r3, #0
   d498c:	e9cd 3307 	strd	r3, r3, [sp, #28]
   d4990:	e7a9      	b.n	d48e6 <_ZN12Adafruit_GFX8drawCharEsshtthh+0x1f2>
                        writeFillRect(x+(xo16+xx)*size_x, y+(yo16+yy)*size_y,
   d4992:	9805      	ldr	r0, [sp, #20]
   d4994:	9a08      	ldr	r2, [sp, #32]
   d4996:	4402      	add	r2, r0
   d4998:	fb02 1105 	mla	r1, r2, r5, r1
   d499c:	9a04      	ldr	r2, [sp, #16]
   d499e:	e9cd 4200 	strd	r4, r2, [sp]
   d49a2:	69db      	ldr	r3, [r3, #28]
   d49a4:	ee18 2a10 	vmov	r2, s16
   d49a8:	461e      	mov	r6, r3
   d49aa:	b209      	sxth	r1, r1
   d49ac:	462b      	mov	r3, r5
   d49ae:	4658      	mov	r0, fp
   d49b0:	47b0      	blx	r6
   d49b2:	e7e0      	b.n	d4976 <_ZN12Adafruit_GFX8drawCharEsshtthh+0x282>
   d49b4:	9b09      	ldr	r3, [sp, #36]	; 0x24
        for(yy=0; yy<h; yy++) {
   d49b6:	3701      	adds	r7, #1
   d49b8:	4498      	add	r8, r3
   d49ba:	fa5f f888 	uxtb.w	r8, r8
   d49be:	b2ff      	uxtb	r7, r7
   d49c0:	e79f      	b.n	d4902 <_ZN12Adafruit_GFX8drawCharEsshtthh+0x20e>
}
   d49c2:	b011      	add	sp, #68	; 0x44
   d49c4:	ecbd 8b02 	vpop	{d8}
   d49c8:	e8bd 8ff0 	ldmia.w	sp!, {r4, r5, r6, r7, r8, r9, sl, fp, pc}
   d49cc:	000d6a94 	.word	0x000d6a94

000d49d0 <_ZN12Adafruit_GFX5writeEh>:
size_t Adafruit_GFX::write(uint8_t c) {
   d49d0:	b5f0      	push	{r4, r5, r6, r7, lr}
    if(!gfxFont) { // 'Classic' built-in font
   d49d2:	6a02      	ldr	r2, [r0, #32]
size_t Adafruit_GFX::write(uint8_t c) {
   d49d4:	b085      	sub	sp, #20
   d49d6:	4604      	mov	r4, r0
   d49d8:	460b      	mov	r3, r1
    if(!gfxFont) { // 'Classic' built-in font
   d49da:	2a00      	cmp	r2, #0
   d49dc:	d134      	bne.n	d4a48 <_ZN12Adafruit_GFX5writeEh+0x78>
        if(c == '\n') {                        // Newline?
   d49de:	290a      	cmp	r1, #10
   d49e0:	d108      	bne.n	d49f4 <_ZN12Adafruit_GFX5writeEh+0x24>
            cursor_y += textsize_y * 8;        // advance y one line
   d49e2:	8a43      	ldrh	r3, [r0, #18]
            cursor_x  = 0;                     // Reset x to zero,
   d49e4:	8202      	strh	r2, [r0, #16]
            cursor_y += textsize_y * 8;        // advance y one line
   d49e6:	7e42      	ldrb	r2, [r0, #25]
   d49e8:	eb03 03c2 	add.w	r3, r3, r2, lsl #3
            cursor_y += (int16_t)textsize_y *
   d49ec:	8263      	strh	r3, [r4, #18]
}
   d49ee:	2001      	movs	r0, #1
   d49f0:	b005      	add	sp, #20
   d49f2:	bdf0      	pop	{r4, r5, r6, r7, pc}
        } else if(c != '\r') {                 // Ignore carriage returns
   d49f4:	290d      	cmp	r1, #13
   d49f6:	d0fa      	beq.n	d49ee <_ZN12Adafruit_GFX5writeEh+0x1e>
            if(wrap && ((cursor_x + textsize_x * 6) > _width)) { // Off right?
   d49f8:	7ee1      	ldrb	r1, [r4, #27]
   d49fa:	7e00      	ldrb	r0, [r0, #24]
   d49fc:	7e65      	ldrb	r5, [r4, #25]
   d49fe:	b171      	cbz	r1, d4a1e <_ZN12Adafruit_GFX5writeEh+0x4e>
   d4a00:	f9b4 6010 	ldrsh.w	r6, [r4, #16]
   d4a04:	2106      	movs	r1, #6
   d4a06:	fb11 6100 	smlabb	r1, r1, r0, r6
   d4a0a:	f9b4 600c 	ldrsh.w	r6, [r4, #12]
   d4a0e:	42b1      	cmp	r1, r6
   d4a10:	bfc1      	itttt	gt
   d4a12:	f9b4 1012 	ldrshgt.w	r1, [r4, #18]
                cursor_x  = 0;                 // Reset x to zero,
   d4a16:	8222      	strhgt	r2, [r4, #16]
                cursor_y += textsize_y * 8;    // advance y one line
   d4a18:	eb01 02c5 	addgt.w	r2, r1, r5, lsl #3
   d4a1c:	8262      	strhgt	r2, [r4, #18]
            drawChar(cursor_x, cursor_y, c, textcolor, textbgcolor, textsize_x, textsize_y);
   d4a1e:	8ae2      	ldrh	r2, [r4, #22]
   d4a20:	9201      	str	r2, [sp, #4]
   d4a22:	8aa2      	ldrh	r2, [r4, #20]
   d4a24:	9200      	str	r2, [sp, #0]
   d4a26:	e9cd 0502 	strd	r0, r5, [sp, #8]
   d4a2a:	f9b4 2012 	ldrsh.w	r2, [r4, #18]
   d4a2e:	f9b4 1010 	ldrsh.w	r1, [r4, #16]
   d4a32:	4620      	mov	r0, r4
   d4a34:	f7ff fe5e 	bl	d46f4 <_ZN12Adafruit_GFX8drawCharEsshtthh>
            cursor_x += textsize_x * 6;          // Advance x one char
   d4a38:	7e23      	ldrb	r3, [r4, #24]
   d4a3a:	8a22      	ldrh	r2, [r4, #16]
   d4a3c:	eb03 0343 	add.w	r3, r3, r3, lsl #1
   d4a40:	eb02 0343 	add.w	r3, r2, r3, lsl #1
                cursor_x += (uint8_t)pgm_read_byte(&glyph->xAdvance) * (int16_t)textsize_x;
   d4a44:	8223      	strh	r3, [r4, #16]
   d4a46:	e7d2      	b.n	d49ee <_ZN12Adafruit_GFX5writeEh+0x1e>
        if(c == '\n') {
   d4a48:	290a      	cmp	r1, #10
   d4a4a:	d107      	bne.n	d4a5c <_ZN12Adafruit_GFX5writeEh+0x8c>
            cursor_x  = 0;
   d4a4c:	2300      	movs	r3, #0
   d4a4e:	8203      	strh	r3, [r0, #16]
                        (uint8_t)pgm_read_byte(&gfxFont->yAdvance);
   d4a50:	7a93      	ldrb	r3, [r2, #10]
            cursor_y += (int16_t)textsize_y *
   d4a52:	7e41      	ldrb	r1, [r0, #25]
   d4a54:	8a42      	ldrh	r2, [r0, #18]
   d4a56:	fb01 2303 	mla	r3, r1, r3, r2
   d4a5a:	e7c7      	b.n	d49ec <_ZN12Adafruit_GFX5writeEh+0x1c>
        } else if(c != '\r') {
   d4a5c:	290d      	cmp	r1, #13
   d4a5e:	d0c6      	beq.n	d49ee <_ZN12Adafruit_GFX5writeEh+0x1e>
            uint8_t first = pgm_read_byte(&gfxFont->first);
   d4a60:	7a15      	ldrb	r5, [r2, #8]
            if((c >= first) && (c <= (uint8_t)pgm_read_byte(&gfxFont->last))) {
   d4a62:	42a9      	cmp	r1, r5
   d4a64:	d3c3      	bcc.n	d49ee <_ZN12Adafruit_GFX5writeEh+0x1e>
   d4a66:	7a51      	ldrb	r1, [r2, #9]
   d4a68:	4299      	cmp	r1, r3
   d4a6a:	d3c0      	bcc.n	d49ee <_ZN12Adafruit_GFX5writeEh+0x1e>
    return gfxFont->glyph + c;
   d4a6c:	6851      	ldr	r1, [r2, #4]
                GFXglyph *glyph  = pgm_read_glyph_ptr(gfxFont, c - first);
   d4a6e:	1b5d      	subs	r5, r3, r5
    return gfxFont->glyph + c;
   d4a70:	b2ed      	uxtb	r5, r5
   d4a72:	eb01 05c5 	add.w	r5, r1, r5, lsl #3
                uint8_t   w     = pgm_read_byte(&glyph->width),
   d4a76:	78af      	ldrb	r7, [r5, #2]
                if((w > 0) && (h > 0)) { // Is there an associated bitmap?
   d4a78:	b32f      	cbz	r7, d4ac6 <_ZN12Adafruit_GFX5writeEh+0xf6>
   d4a7a:	78e9      	ldrb	r1, [r5, #3]
   d4a7c:	b319      	cbz	r1, d4ac6 <_ZN12Adafruit_GFX5writeEh+0xf6>
                    if(wrap && ((cursor_x + textsize_x * (xo + w)) > _width)) {
   d4a7e:	7ee1      	ldrb	r1, [r4, #27]
   d4a80:	7e00      	ldrb	r0, [r0, #24]
   d4a82:	7e66      	ldrb	r6, [r4, #25]
   d4a84:	b191      	cbz	r1, d4aac <_ZN12Adafruit_GFX5writeEh+0xdc>
   d4a86:	f995 1005 	ldrsb.w	r1, [r5, #5]
   d4a8a:	4439      	add	r1, r7
   d4a8c:	f9b4 7010 	ldrsh.w	r7, [r4, #16]
   d4a90:	fb00 7101 	mla	r1, r0, r1, r7
   d4a94:	f9b4 700c 	ldrsh.w	r7, [r4, #12]
   d4a98:	42b9      	cmp	r1, r7
   d4a9a:	dd07      	ble.n	d4aac <_ZN12Adafruit_GFX5writeEh+0xdc>
                        cursor_x  = 0;
   d4a9c:	2700      	movs	r7, #0
   d4a9e:	8227      	strh	r7, [r4, #16]
   d4aa0:	f9b4 1012 	ldrsh.w	r1, [r4, #18]
                          (uint8_t)pgm_read_byte(&gfxFont->yAdvance);
   d4aa4:	7a92      	ldrb	r2, [r2, #10]
                        cursor_y += (int16_t)textsize_y *
   d4aa6:	fb02 1206 	mla	r2, r2, r6, r1
   d4aaa:	8262      	strh	r2, [r4, #18]
                    drawChar(cursor_x, cursor_y, c, textcolor, textbgcolor, textsize_x, textsize_y);
   d4aac:	8ae2      	ldrh	r2, [r4, #22]
   d4aae:	9201      	str	r2, [sp, #4]
   d4ab0:	8aa2      	ldrh	r2, [r4, #20]
   d4ab2:	9200      	str	r2, [sp, #0]
   d4ab4:	e9cd 0602 	strd	r0, r6, [sp, #8]
   d4ab8:	f9b4 2012 	ldrsh.w	r2, [r4, #18]
   d4abc:	f9b4 1010 	ldrsh.w	r1, [r4, #16]
   d4ac0:	4620      	mov	r0, r4
   d4ac2:	f7ff fe17 	bl	d46f4 <_ZN12Adafruit_GFX8drawCharEsshtthh>
                cursor_x += (uint8_t)pgm_read_byte(&glyph->xAdvance) * (int16_t)textsize_x;
   d4ac6:	7929      	ldrb	r1, [r5, #4]
   d4ac8:	7e23      	ldrb	r3, [r4, #24]
   d4aca:	8a22      	ldrh	r2, [r4, #16]
   d4acc:	fb01 2303 	mla	r3, r1, r3, r2
   d4ad0:	e7b8      	b.n	d4a44 <_ZN12Adafruit_GFX5writeEh+0x74>

000d4ad2 <_ZN12Adafruit_GFX11setTextSizeEh>:
    textsize_x = (s_x > 0) ? s_x : 1;
   d4ad2:	2901      	cmp	r1, #1
   d4ad4:	bf38      	it	cc
   d4ad6:	2101      	movcc	r1, #1
   d4ad8:	7601      	strb	r1, [r0, #24]
    textsize_y = (s_y > 0) ? s_y : 1;
   d4ada:	7641      	strb	r1, [r0, #25]
}
   d4adc:	4770      	bx	lr
	...

000d4ae0 <_ZN16OledWingAdafruitD1Ev>:


OledWingAdafruit::OledWingAdafruit(int useButtons) : Adafruit_SSD1306(128, 32), useButtons(useButtons) {

}
OledWingAdafruit::~OledWingAdafruit() {
   d4ae0:	b510      	push	{r4, lr}
   d4ae2:	4b06      	ldr	r3, [pc, #24]	; (d4afc <_ZN16OledWingAdafruitD1Ev+0x1c>)
   d4ae4:	6003      	str	r3, [r0, #0]
   d4ae6:	4604      	mov	r4, r0
	if (mutex) {
   d4ae8:	6d00      	ldr	r0, [r0, #80]	; 0x50
   d4aea:	b108      	cbz	r0, d4af0 <_ZN16OledWingAdafruitD1Ev+0x10>
		os_mutex_destroy(mutex);
   d4aec:	f000 ff1c 	bl	d5928 <os_mutex_destroy>
OledWingAdafruit::~OledWingAdafruit() {
   d4af0:	4620      	mov	r0, r4
   d4af2:	f000 fa4b 	bl	d4f8c <_ZN16Adafruit_SSD1306D1Ev>
	}
}
   d4af6:	4620      	mov	r0, r4
   d4af8:	bd10      	pop	{r4, pc}
   d4afa:	bf00      	nop
   d4afc:	000d6ff4 	.word	0x000d6ff4

000d4b00 <_ZN16OledWingAdafruitD0Ev>:
OledWingAdafruit::~OledWingAdafruit() {
   d4b00:	b510      	push	{r4, lr}
   d4b02:	4604      	mov	r4, r0
}
   d4b04:	f7ff ffec 	bl	d4ae0 <_ZN16OledWingAdafruitD1Ev>
   d4b08:	4620      	mov	r0, r4
   d4b0a:	2170      	movs	r1, #112	; 0x70
   d4b0c:	f001 ff27 	bl	d695e <_ZdlPvj>
   d4b10:	4620      	mov	r0, r4
   d4b12:	bd10      	pop	{r4, pc}

000d4b14 <_ZN16OledWingAdafruitC1Ei>:
OledWingAdafruit::OledWingAdafruit(int useButtons) : Adafruit_SSD1306(128, 32), useButtons(useButtons) {
   d4b14:	b530      	push	{r4, r5, lr}
   d4b16:	b085      	sub	sp, #20
   d4b18:	4604      	mov	r4, r0
   d4b1a:	460d      	mov	r5, r1
   d4b1c:	f001 fef2 	bl	d6904 <_Z19__fetch_global_Wirev>
   d4b20:	4a10      	ldr	r2, [pc, #64]	; (d4b64 <_ZN16OledWingAdafruitC1Ei+0x50>)
   d4b22:	4911      	ldr	r1, [pc, #68]	; (d4b68 <_ZN16OledWingAdafruitC1Ei+0x54>)
   d4b24:	e9cd 2101 	strd	r2, r1, [sp, #4]
   d4b28:	f04f 32ff 	mov.w	r2, #4294967295
   d4b2c:	2180      	movs	r1, #128	; 0x80
   d4b2e:	4603      	mov	r3, r0
   d4b30:	9200      	str	r2, [sp, #0]
   d4b32:	4620      	mov	r0, r4
   d4b34:	2220      	movs	r2, #32
   d4b36:	f000 faaf 	bl	d5098 <_ZN16Adafruit_SSD1306C1EhhP7TwoWireamm>
   d4b3a:	4b0c      	ldr	r3, [pc, #48]	; (d4b6c <_ZN16OledWingAdafruitC1Ei+0x58>)
   d4b3c:	6023      	str	r3, [r4, #0]
   d4b3e:	2300      	movs	r3, #0
   d4b40:	e9c4 3514 	strd	r3, r5, [r4, #80]	; 0x50
   d4b44:	f104 0058 	add.w	r0, r4, #88	; 0x58
   d4b48:	f000 f872 	bl	d4c30 <_ZN8DebounceC1Ev>
   d4b4c:	f104 0060 	add.w	r0, r4, #96	; 0x60
   d4b50:	f000 f86e 	bl	d4c30 <_ZN8DebounceC1Ev>
   d4b54:	f104 0068 	add.w	r0, r4, #104	; 0x68
   d4b58:	f000 f86a 	bl	d4c30 <_ZN8DebounceC1Ev>
}
   d4b5c:	4620      	mov	r0, r4
   d4b5e:	b005      	add	sp, #20
   d4b60:	bd30      	pop	{r4, r5, pc}
   d4b62:	bf00      	nop
   d4b64:	00061a80 	.word	0x00061a80
   d4b68:	000186a0 	.word	0x000186a0
   d4b6c:	000d6ff4 	.word	0x000d6ff4

000d4b70 <_ZN16OledWingAdafruit5setupEv>:

void OledWingAdafruit::setup() {
   d4b70:	b513      	push	{r0, r1, r4, lr}
   d4b72:	4604      	mov	r4, r0
	os_mutex_create(&mutex);
   d4b74:	3050      	adds	r0, #80	; 0x50
   d4b76:	f000 fecf 	bl	d5918 <os_mutex_create>

	if (useButtons & USE_BUTTON_A) {
   d4b7a:	6d63      	ldr	r3, [r4, #84]	; 0x54
   d4b7c:	07d9      	lsls	r1, r3, #31
   d4b7e:	d505      	bpl.n	d4b8c <_ZN16OledWingAdafruit5setupEv+0x1c>
		buttonA.attach(BUTTON_A_PIN, INPUT_PULLUP);
   d4b80:	2202      	movs	r2, #2
   d4b82:	2104      	movs	r1, #4
   d4b84:	f104 0058 	add.w	r0, r4, #88	; 0x58
   d4b88:	f000 f866 	bl	d4c58 <_ZN8Debounce6attachEi7PinMode>
	}
	if (useButtons & USE_BUTTON_B) {
   d4b8c:	6d63      	ldr	r3, [r4, #84]	; 0x54
   d4b8e:	079a      	lsls	r2, r3, #30
   d4b90:	d505      	bpl.n	d4b9e <_ZN16OledWingAdafruit5setupEv+0x2e>
		buttonB.attach(BUTTON_B_PIN, INPUT); // Button B has a hardware 100K pull-up on the board
   d4b92:	2200      	movs	r2, #0
   d4b94:	2103      	movs	r1, #3
   d4b96:	f104 0060 	add.w	r0, r4, #96	; 0x60
   d4b9a:	f000 f85d 	bl	d4c58 <_ZN8Debounce6attachEi7PinMode>
	}
	if (useButtons & USE_BUTTON_C) {
   d4b9e:	6d63      	ldr	r3, [r4, #84]	; 0x54
   d4ba0:	075b      	lsls	r3, r3, #29
   d4ba2:	d505      	bpl.n	d4bb0 <_ZN16OledWingAdafruit5setupEv+0x40>
		buttonC.attach(BUTTON_C_PIN, INPUT_PULLUP);
   d4ba4:	2202      	movs	r2, #2
   d4ba6:	4611      	mov	r1, r2
   d4ba8:	f104 0068 	add.w	r0, r4, #104	; 0x68
   d4bac:	f000 f854 	bl	d4c58 <_ZN8Debounce6attachEi7PinMode>
	}

	// 128x32 = I2C addr 0x3C. Method inherited from Adafruit_SSD1306.
	begin(SSD1306_SWITCHCAPVCC, 0x3C);
   d4bb0:	2301      	movs	r3, #1
   d4bb2:	9300      	str	r3, [sp, #0]
   d4bb4:	223c      	movs	r2, #60	; 0x3c
   d4bb6:	2102      	movs	r1, #2
   d4bb8:	4620      	mov	r0, r4
   d4bba:	f000 fb6d 	bl	d5298 <_ZN16Adafruit_SSD13065beginEhhbb>
}
   d4bbe:	b002      	add	sp, #8
   d4bc0:	bd10      	pop	{r4, pc}

000d4bc2 <_ZN16OledWingAdafruit4loopEv>:

void OledWingAdafruit::loop() {
   d4bc2:	b510      	push	{r4, lr}
	if (useButtons & USE_BUTTON_A) {
   d4bc4:	6d43      	ldr	r3, [r0, #84]	; 0x54
   d4bc6:	07d9      	lsls	r1, r3, #31
void OledWingAdafruit::loop() {
   d4bc8:	4604      	mov	r4, r0
	if (useButtons & USE_BUTTON_A) {
   d4bca:	d502      	bpl.n	d4bd2 <_ZN16OledWingAdafruit4loopEv+0x10>
		buttonA.update();
   d4bcc:	3058      	adds	r0, #88	; 0x58
   d4bce:	f000 f850 	bl	d4c72 <_ZN8Debounce6updateEv>
	}
	if (useButtons & USE_BUTTON_B) {
   d4bd2:	6d63      	ldr	r3, [r4, #84]	; 0x54
   d4bd4:	079a      	lsls	r2, r3, #30
   d4bd6:	d503      	bpl.n	d4be0 <_ZN16OledWingAdafruit4loopEv+0x1e>
		buttonB.update();
   d4bd8:	f104 0060 	add.w	r0, r4, #96	; 0x60
   d4bdc:	f000 f849 	bl	d4c72 <_ZN8Debounce6updateEv>
	}
	if (useButtons & USE_BUTTON_C) {
   d4be0:	6d63      	ldr	r3, [r4, #84]	; 0x54
   d4be2:	075b      	lsls	r3, r3, #29
   d4be4:	d505      	bpl.n	d4bf2 <_ZN16OledWingAdafruit4loopEv+0x30>
		buttonC.update();
   d4be6:	f104 0068 	add.w	r0, r4, #104	; 0x68
	}
}
   d4bea:	e8bd 4010 	ldmia.w	sp!, {r4, lr}
		buttonC.update();
   d4bee:	f000 b840 	b.w	d4c72 <_ZN8Debounce6updateEv>
}
   d4bf2:	bd10      	pop	{r4, pc}

000d4bf4 <_ZN16OledWingAdafruit8pressedAEv>:

bool OledWingAdafruit::pressedA() {
	return (useButtons & USE_BUTTON_A) && buttonA.fell();
   d4bf4:	6d43      	ldr	r3, [r0, #84]	; 0x54
bool OledWingAdafruit::pressedA() {
   d4bf6:	4602      	mov	r2, r0
	return (useButtons & USE_BUTTON_A) && buttonA.fell();
   d4bf8:	f013 0001 	ands.w	r0, r3, #1
   d4bfc:	d003      	beq.n	d4c06 <_ZN16OledWingAdafruit8pressedAEv+0x12>
   d4bfe:	f102 0058 	add.w	r0, r2, #88	; 0x58
   d4c02:	f000 b866 	b.w	d4cd2 <_ZN8Debounce4fellEv>
}
   d4c06:	4770      	bx	lr

000d4c08 <_ZN16OledWingAdafruit8pressedBEv>:

bool OledWingAdafruit::pressedB() {
	return (useButtons & USE_BUTTON_B) && buttonB.fell();
   d4c08:	6d43      	ldr	r3, [r0, #84]	; 0x54
bool OledWingAdafruit::pressedB() {
   d4c0a:	4602      	mov	r2, r0
	return (useButtons & USE_BUTTON_B) && buttonB.fell();
   d4c0c:	f013 0002 	ands.w	r0, r3, #2
   d4c10:	d003      	beq.n	d4c1a <_ZN16OledWingAdafruit8pressedBEv+0x12>
   d4c12:	f102 0060 	add.w	r0, r2, #96	; 0x60
   d4c16:	f000 b85c 	b.w	d4cd2 <_ZN8Debounce4fellEv>
}
   d4c1a:	4770      	bx	lr

000d4c1c <_ZN16OledWingAdafruit8pressedCEv>:

bool OledWingAdafruit::pressedC() {
	return (useButtons & USE_BUTTON_C) && buttonC.fell();
   d4c1c:	6d43      	ldr	r3, [r0, #84]	; 0x54
bool OledWingAdafruit::pressedC() {
   d4c1e:	4602      	mov	r2, r0
	return (useButtons & USE_BUTTON_C) && buttonC.fell();
   d4c20:	f013 0004 	ands.w	r0, r3, #4
   d4c24:	d003      	beq.n	d4c2e <_ZN16OledWingAdafruit8pressedCEv+0x12>
   d4c26:	f102 0068 	add.w	r0, r2, #104	; 0x68
   d4c2a:	f000 b852 	b.w	d4cd2 <_ZN8Debounce4fellEv>
}
   d4c2e:	4770      	bx	lr

000d4c30 <_ZN8DebounceC1Ev>:

Debounce::Debounce()
    : previous_millis(0)
    , interval_millis(10)
    , state(0)
    , pin(0)
   d4c30:	2100      	movs	r1, #0
   d4c32:	220a      	movs	r2, #10
   d4c34:	e9c0 1200 	strd	r1, r2, [r0]
{}
   d4c38:	4770      	bx	lr

000d4c3a <_ZN8Debounce6attachEi>:

void Debounce::attach(int pin) {
    this->pin = pin;
    state = 0;
   d4c3a:	2300      	movs	r3, #0
void Debounce::attach(int pin) {
   d4c3c:	b510      	push	{r4, lr}
   d4c3e:	4604      	mov	r4, r0
    this->pin = pin;
   d4c40:	71c1      	strb	r1, [r0, #7]
    state = 0;
   d4c42:	7183      	strb	r3, [r0, #6]
    if (digitalRead(pin)) {
   d4c44:	b288      	uxth	r0, r1
   d4c46:	f001 fe31 	bl	d68ac <digitalRead>
   d4c4a:	b108      	cbz	r0, d4c50 <_ZN8Debounce6attachEi+0x16>
        state = _BV(DEBOUNCED_STATE) | _BV(UNSTABLE_STATE);
   d4c4c:	2303      	movs	r3, #3
   d4c4e:	71a3      	strb	r3, [r4, #6]

#ifdef __cplusplus
extern "C" {
#endif

inline system_tick_t millis(void) { return HAL_Timer_Get_Milli_Seconds(); }
   d4c50:	f000 fe5a 	bl	d5908 <HAL_Timer_Get_Milli_Seconds>
    }
#ifdef BOUNCE_LOCK_OUT
    previous_millis = 0;
#else
    previous_millis = millis();
   d4c54:	6020      	str	r0, [r4, #0]
#endif
}
   d4c56:	bd10      	pop	{r4, pc}

000d4c58 <_ZN8Debounce6attachEi7PinMode>:

void Debounce::attach(int pin, PinMode mode){
   d4c58:	b538      	push	{r3, r4, r5, lr}
   d4c5a:	460c      	mov	r4, r1
   d4c5c:	4605      	mov	r5, r0
  pinMode(pin, mode);
   d4c5e:	4611      	mov	r1, r2
   d4c60:	b2a0      	uxth	r0, r4
   d4c62:	f001 fdf9 	bl	d6858 <pinMode>
  
  this->attach(pin);
   d4c66:	4621      	mov	r1, r4
   d4c68:	4628      	mov	r0, r5
}
   d4c6a:	e8bd 4038 	ldmia.w	sp!, {r3, r4, r5, lr}
  this->attach(pin);
   d4c6e:	f7ff bfe4 	b.w	d4c3a <_ZN8Debounce6attachEi>

000d4c72 <_ZN8Debounce6updateEv>:
{
    this->interval_millis = interval_millis;
}

bool Debounce::update()
{
   d4c72:	b538      	push	{r3, r4, r5, lr}
   d4c74:	4604      	mov	r4, r0
    }
    // return just the sate changed bit
    return state & _BV(STATE_CHANGED);
#else
    // Read the state of the switch in a temporary variable.
    bool currentState = digitalRead(pin);
   d4c76:	79c0      	ldrb	r0, [r0, #7]
   d4c78:	f001 fe18 	bl	d68ac <digitalRead>
    state &= ~_BV(STATE_CHANGED);
   d4c7c:	79a5      	ldrb	r5, [r4, #6]
    bool currentState = digitalRead(pin);
   d4c7e:	3800      	subs	r0, #0
    state &= ~_BV(STATE_CHANGED);
   d4c80:	f025 0308 	bic.w	r3, r5, #8
    bool currentState = digitalRead(pin);
   d4c84:	bf18      	it	ne
   d4c86:	2001      	movne	r0, #1

    // If the reading is different from last reading, reset the debounce counter
    if ( currentState != (bool)(state & _BV(UNSTABLE_STATE)) ) {
   d4c88:	f3c5 0540 	ubfx	r5, r5, #1, #1
   d4c8c:	4285      	cmp	r5, r0
    state &= ~_BV(STATE_CHANGED);
   d4c8e:	71a3      	strb	r3, [r4, #6]
    if ( currentState != (bool)(state & _BV(UNSTABLE_STATE)) ) {
   d4c90:	d00a      	beq.n	d4ca8 <_ZN8Debounce6updateEv+0x36>
   d4c92:	f000 fe39 	bl	d5908 <HAL_Timer_Get_Milli_Seconds>
        previous_millis = millis();
        state ^= _BV(UNSTABLE_STATE);
   d4c96:	79a3      	ldrb	r3, [r4, #6]
        previous_millis = millis();
   d4c98:	6020      	str	r0, [r4, #0]
        state ^= _BV(UNSTABLE_STATE);
   d4c9a:	f083 0302 	eor.w	r3, r3, #2
            // We have passed the threshold time, so the input is now stable
            // If it is different from last state, set the STATE_CHANGED flag
            if ((bool)(state & _BV(DEBOUNCED_STATE)) != currentState) {
                previous_millis = millis();
                state ^= _BV(DEBOUNCED_STATE);
                state |= _BV(STATE_CHANGED);
   d4c9e:	71a3      	strb	r3, [r4, #6]
            }
        }

    return state & _BV(STATE_CHANGED);
   d4ca0:	79a0      	ldrb	r0, [r4, #6]
#endif
}
   d4ca2:	f3c0 00c0 	ubfx	r0, r0, #3, #1
   d4ca6:	bd38      	pop	{r3, r4, r5, pc}
   d4ca8:	f000 fe2e 	bl	d5908 <HAL_Timer_Get_Milli_Seconds>
        if ( millis() - previous_millis >= interval_millis ) {
   d4cac:	6823      	ldr	r3, [r4, #0]
   d4cae:	1ac0      	subs	r0, r0, r3
   d4cb0:	88a3      	ldrh	r3, [r4, #4]
   d4cb2:	4298      	cmp	r0, r3
   d4cb4:	d3f4      	bcc.n	d4ca0 <_ZN8Debounce6updateEv+0x2e>
            if ((bool)(state & _BV(DEBOUNCED_STATE)) != currentState) {
   d4cb6:	79a3      	ldrb	r3, [r4, #6]
   d4cb8:	f003 0301 	and.w	r3, r3, #1
   d4cbc:	42ab      	cmp	r3, r5
   d4cbe:	d0ef      	beq.n	d4ca0 <_ZN8Debounce6updateEv+0x2e>
   d4cc0:	f000 fe22 	bl	d5908 <HAL_Timer_Get_Milli_Seconds>
                state ^= _BV(DEBOUNCED_STATE);
   d4cc4:	79a3      	ldrb	r3, [r4, #6]
                previous_millis = millis();
   d4cc6:	6020      	str	r0, [r4, #0]
                state ^= _BV(DEBOUNCED_STATE);
   d4cc8:	f083 0301 	eor.w	r3, r3, #1
                state |= _BV(STATE_CHANGED);
   d4ccc:	f043 0308 	orr.w	r3, r3, #8
   d4cd0:	e7e5      	b.n	d4c9e <_ZN8Debounce6updateEv+0x2c>

000d4cd2 <_ZN8Debounce4fellEv>:
    return ( state & _BV(DEBOUNCED_STATE) ) && ( state & _BV(STATE_CHANGED));
}

bool Debounce::fell()
{
    return !( state & _BV(DEBOUNCED_STATE) ) && ( state & _BV(STATE_CHANGED));
   d4cd2:	7980      	ldrb	r0, [r0, #6]
   d4cd4:	f000 0009 	and.w	r0, r0, #9
   d4cd8:	f1a0 0308 	sub.w	r3, r0, #8
   d4cdc:	4258      	negs	r0, r3
   d4cde:	4158      	adcs	r0, r3
   d4ce0:	4770      	bx	lr

000d4ce2 <_ZN7TwoWire5writeEi>:
  bool unlock();

  inline size_t write(unsigned long n) { return write((uint8_t)n); }
  inline size_t write(long n) { return write((uint8_t)n); }
  inline size_t write(unsigned int n) { return write((uint8_t)n); }
  inline size_t write(int n) { return write((uint8_t)n); }
   d4ce2:	6803      	ldr	r3, [r0, #0]
   d4ce4:	b2c9      	uxtb	r1, r1
   d4ce6:	689b      	ldr	r3, [r3, #8]
   d4ce8:	4718      	bx	r3

000d4cea <_ZN8VCNL4040C1Ev>:
#define VCNL4040_WHITE_DATA 0x0A
#define VCNL4040_INT_FLAG 0x0B //Upper
#define VCNL4040_ID 0x0C

//Class constructor
VCNL4040::VCNL4040(void) {}
   d4cea:	4770      	bx	lr

000d4cec <_ZN8VCNL404011isConnectedEv>:

  return (true);
}

//Test to see if the device is responding
boolean VCNL4040::isConnected(void) {
   d4cec:	b510      	push	{r4, lr}
   d4cee:	4604      	mov	r4, r0
  _i2cPort->beginTransmission((uint8_t)VCNL4040_ADDR);
   d4cf0:	2160      	movs	r1, #96	; 0x60
   d4cf2:	6800      	ldr	r0, [r0, #0]
   d4cf4:	f001 fc76 	bl	d65e4 <_ZN7TwoWire17beginTransmissionEh>
  return (_i2cPort->endTransmission() == 0);
   d4cf8:	6820      	ldr	r0, [r4, #0]
   d4cfa:	f001 fc7e 	bl	d65fa <_ZN7TwoWire15endTransmissionEv>
}
   d4cfe:	fab0 f080 	clz	r0, r0
   d4d02:	0940      	lsrs	r0, r0, #5
   d4d04:	bd10      	pop	{r4, pc}

000d4d06 <_ZN8VCNL404011readCommandEh>:
  return (interruptFlags & VCNL4040_INT_FLAG_ALS_LOW);
}

//Reads two consecutive bytes from a given 'command code' location
uint16_t VCNL4040::readCommand(uint8_t commandCode)
{
   d4d06:	b538      	push	{r3, r4, r5, lr}
   d4d08:	4605      	mov	r5, r0
   d4d0a:	460c      	mov	r4, r1
  _i2cPort->beginTransmission(VCNL4040_ADDR);
   d4d0c:	6800      	ldr	r0, [r0, #0]
   d4d0e:	2160      	movs	r1, #96	; 0x60
   d4d10:	f001 fc68 	bl	d65e4 <_ZN7TwoWire17beginTransmissionEh>
  _i2cPort->write(commandCode);
   d4d14:	6828      	ldr	r0, [r5, #0]
   d4d16:	6803      	ldr	r3, [r0, #0]
   d4d18:	4621      	mov	r1, r4
   d4d1a:	689b      	ldr	r3, [r3, #8]
   d4d1c:	4798      	blx	r3
  if (_i2cPort->endTransmission(false) != 0) //Send a restart command. Do not release bus.
   d4d1e:	6828      	ldr	r0, [r5, #0]
   d4d20:	2100      	movs	r1, #0
   d4d22:	f001 fc66 	bl	d65f2 <_ZN7TwoWire15endTransmissionEh>
   d4d26:	b108      	cbz	r0, d4d2c <_ZN8VCNL404011readCommandEh+0x26>
  {
    return (0); //Sensor did not ACK
   d4d28:	2000      	movs	r0, #0
    uint8_t msb = _i2cPort->read();
    return ((uint16_t)msb << 8 | lsb);
  }

  return (0); //Sensor did not respond
}
   d4d2a:	bd38      	pop	{r3, r4, r5, pc}
  _i2cPort->requestFrom((uint8_t)VCNL4040_ADDR, (uint8_t)2);
   d4d2c:	6828      	ldr	r0, [r5, #0]
   d4d2e:	2202      	movs	r2, #2
   d4d30:	2160      	movs	r1, #96	; 0x60
   d4d32:	f001 fc54 	bl	d65de <_ZN7TwoWire11requestFromEhj>
  if (_i2cPort->available())
   d4d36:	6828      	ldr	r0, [r5, #0]
   d4d38:	6803      	ldr	r3, [r0, #0]
   d4d3a:	691b      	ldr	r3, [r3, #16]
   d4d3c:	4798      	blx	r3
   d4d3e:	2800      	cmp	r0, #0
   d4d40:	d0f2      	beq.n	d4d28 <_ZN8VCNL404011readCommandEh+0x22>
    uint8_t lsb = _i2cPort->read();
   d4d42:	6828      	ldr	r0, [r5, #0]
   d4d44:	6803      	ldr	r3, [r0, #0]
   d4d46:	695b      	ldr	r3, [r3, #20]
   d4d48:	4798      	blx	r3
   d4d4a:	4604      	mov	r4, r0
    uint8_t msb = _i2cPort->read();
   d4d4c:	6828      	ldr	r0, [r5, #0]
   d4d4e:	6803      	ldr	r3, [r0, #0]
   d4d50:	695b      	ldr	r3, [r3, #20]
   d4d52:	4798      	blx	r3
    return ((uint16_t)msb << 8 | lsb);
   d4d54:	b2e4      	uxtb	r4, r4
   d4d56:	ea44 2000 	orr.w	r0, r4, r0, lsl #8
   d4d5a:	b280      	uxth	r0, r0
   d4d5c:	e7e5      	b.n	d4d2a <_ZN8VCNL404011readCommandEh+0x24>

000d4d5e <_ZN8VCNL404012getProximityEv>:
  return (readCommand(VCNL4040_PS_DATA));
   d4d5e:	2108      	movs	r1, #8
   d4d60:	f7ff bfd1 	b.w	d4d06 <_ZN8VCNL404011readCommandEh>

000d4d64 <_ZN8VCNL404010getAmbientEv>:
  return (readCommand(VCNL4040_ALS_DATA));
   d4d64:	2109      	movs	r1, #9
   d4d66:	f7ff bfce 	b.w	d4d06 <_ZN8VCNL404011readCommandEh>

000d4d6a <_ZN8VCNL40405getIDEv>:
  return (readCommand(VCNL4040_ID));
   d4d6a:	210c      	movs	r1, #12
   d4d6c:	f7ff bfcb 	b.w	d4d06 <_ZN8VCNL404011readCommandEh>

000d4d70 <_ZN8VCNL404012writeCommandEht>:

//Write two bytes to a given command code location (8 bits)
boolean VCNL4040::writeCommand(uint8_t commandCode, uint16_t value)
{
   d4d70:	b570      	push	{r4, r5, r6, lr}
   d4d72:	4604      	mov	r4, r0
   d4d74:	460e      	mov	r6, r1
  _i2cPort->beginTransmission(VCNL4040_ADDR);
   d4d76:	6800      	ldr	r0, [r0, #0]
   d4d78:	2160      	movs	r1, #96	; 0x60
{
   d4d7a:	4615      	mov	r5, r2
  _i2cPort->beginTransmission(VCNL4040_ADDR);
   d4d7c:	f001 fc32 	bl	d65e4 <_ZN7TwoWire17beginTransmissionEh>
  _i2cPort->write(commandCode);
   d4d80:	6820      	ldr	r0, [r4, #0]
   d4d82:	6803      	ldr	r3, [r0, #0]
   d4d84:	4631      	mov	r1, r6
   d4d86:	689b      	ldr	r3, [r3, #8]
   d4d88:	4798      	blx	r3
  _i2cPort->write(value & 0xFF); //LSB
   d4d8a:	b2e9      	uxtb	r1, r5
   d4d8c:	6820      	ldr	r0, [r4, #0]
   d4d8e:	f7ff ffa8 	bl	d4ce2 <_ZN7TwoWire5writeEi>
  _i2cPort->write(value >> 8); //MSB
   d4d92:	0a29      	lsrs	r1, r5, #8
   d4d94:	6820      	ldr	r0, [r4, #0]
   d4d96:	f7ff ffa4 	bl	d4ce2 <_ZN7TwoWire5writeEi>
  if (_i2cPort->endTransmission() != 0)
   d4d9a:	6820      	ldr	r0, [r4, #0]
   d4d9c:	f001 fc2d 	bl	d65fa <_ZN7TwoWire15endTransmissionEv>
  {
    return (false); //Sensor did not ACK
  }

  return (true);
}
   d4da0:	fab0 f080 	clz	r0, r0
   d4da4:	0940      	lsrs	r0, r0, #5
   d4da6:	bd70      	pop	{r4, r5, r6, pc}

000d4da8 <_ZN8VCNL404017writeCommandLowerEhh>:

//Given a command code (address) write to the lower byte without affecting the upper byte
boolean VCNL4040::writeCommandLower(uint8_t commandCode, uint8_t newValue)
{
   d4da8:	b570      	push	{r4, r5, r6, lr}
   d4daa:	4604      	mov	r4, r0
   d4dac:	460d      	mov	r5, r1
   d4dae:	4616      	mov	r6, r2
  uint16_t commandValue = readCommand(commandCode);
   d4db0:	f7ff ffa9 	bl	d4d06 <_ZN8VCNL404011readCommandEh>
  commandValue &= 0xFF00; //Remove lower 8 bits
   d4db4:	f400 407f 	and.w	r0, r0, #65280	; 0xff00
  commandValue |= (uint16_t)newValue; //Mask in
  return (writeCommand(commandCode, commandValue));
   d4db8:	ea40 0206 	orr.w	r2, r0, r6
   d4dbc:	4629      	mov	r1, r5
   d4dbe:	4620      	mov	r0, r4
}
   d4dc0:	e8bd 4070 	ldmia.w	sp!, {r4, r5, r6, lr}
  return (writeCommand(commandCode, commandValue));
   d4dc4:	f7ff bfd4 	b.w	d4d70 <_ZN8VCNL404012writeCommandEht>

000d4dc8 <_ZN8VCNL404017writeCommandUpperEhh>:

//Given a command code (address) write to the upper byte without affecting the lower byte
boolean VCNL4040::writeCommandUpper(uint8_t commandCode, uint8_t newValue)
{
   d4dc8:	b570      	push	{r4, r5, r6, lr}
   d4dca:	4604      	mov	r4, r0
   d4dcc:	460d      	mov	r5, r1
   d4dce:	4616      	mov	r6, r2
  uint16_t commandValue = readCommand(commandCode);
   d4dd0:	f7ff ff99 	bl	d4d06 <_ZN8VCNL404011readCommandEh>
  commandValue &= 0x00FF; //Remove upper 8 bits
   d4dd4:	b2c0      	uxtb	r0, r0
  commandValue |= (uint16_t)newValue << 8; //Mask in
  return (writeCommand(commandCode, commandValue));
   d4dd6:	ea40 2206 	orr.w	r2, r0, r6, lsl #8
   d4dda:	4629      	mov	r1, r5
   d4ddc:	4620      	mov	r0, r4
}
   d4dde:	e8bd 4070 	ldmia.w	sp!, {r4, r5, r6, lr}
  return (writeCommand(commandCode, commandValue));
   d4de2:	f7ff bfc5 	b.w	d4d70 <_ZN8VCNL404012writeCommandEht>

000d4de6 <_ZN8VCNL404016readCommandUpperEh>:
  return (commandValue & 0xFF);
}

//Given a command code (address) read the upper byte
uint8_t VCNL4040::readCommandUpper(uint8_t commandCode)
{
   d4de6:	b508      	push	{r3, lr}
  uint16_t commandValue = readCommand(commandCode);
   d4de8:	f7ff ff8d 	bl	d4d06 <_ZN8VCNL404011readCommandEh>
  return (commandValue >> 8);
}
   d4dec:	f3c0 2007 	ubfx	r0, r0, #8, #8
   d4df0:	bd08      	pop	{r3, pc}

000d4df2 <_ZN8VCNL40407bitMaskEhbhh>:
//commandHeight is used to select between the upper or lower byte of command register
//Example:
//Write dutyValue into PS_CONF1, lower byte, using the Duty_Mask
//bitMask(VCNL4040_PS_CONF1, LOWER, VCNL4040_PS_DUTY_MASK, dutyValue);
void VCNL4040::bitMask(uint8_t commandAddress, boolean commandHeight, uint8_t mask, uint8_t thing)
{
   d4df2:	e92d 41f0 	stmdb	sp!, {r4, r5, r6, r7, r8, lr}
   d4df6:	4604      	mov	r4, r0
   d4df8:	f89d 7018 	ldrb.w	r7, [sp, #24]
   d4dfc:	460d      	mov	r5, r1
   d4dfe:	4698      	mov	r8, r3
  // Grab current register context
  uint8_t registerContents;
  if (commandHeight == LOWER) registerContents = readCommandLower(commandAddress);
   d4e00:	4616      	mov	r6, r2
   d4e02:	b16a      	cbz	r2, d4e20 <_ZN8VCNL40407bitMaskEhbhh+0x2e>
  uint16_t commandValue = readCommand(commandCode);
   d4e04:	f7ff ff7f 	bl	d4d06 <_ZN8VCNL404011readCommandEh>
  return (commandValue & 0xFF);
   d4e08:	b2c0      	uxtb	r0, r0
  else registerContents = readCommandUpper(commandAddress);

  // Zero-out the portions of the register we're interested in
  registerContents &= mask;
   d4e0a:	ea00 0308 	and.w	r3, r0, r8

  // Mask in new thing
  registerContents |= thing;
   d4e0e:	ea43 0207 	orr.w	r2, r3, r7

  // Change contents
  if (commandHeight == LOWER) writeCommandLower(commandAddress, registerContents);
   d4e12:	4629      	mov	r1, r5
   d4e14:	4620      	mov	r0, r4
   d4e16:	b136      	cbz	r6, d4e26 <_ZN8VCNL40407bitMaskEhbhh+0x34>
  else writeCommandUpper(commandAddress, registerContents);
}
   d4e18:	e8bd 41f0 	ldmia.w	sp!, {r4, r5, r6, r7, r8, lr}
  if (commandHeight == LOWER) writeCommandLower(commandAddress, registerContents);
   d4e1c:	f7ff bfc4 	b.w	d4da8 <_ZN8VCNL404017writeCommandLowerEhh>
  else registerContents = readCommandUpper(commandAddress);
   d4e20:	f7ff ffe1 	bl	d4de6 <_ZN8VCNL404016readCommandUpperEh>
   d4e24:	e7f1      	b.n	d4e0a <_ZN8VCNL40407bitMaskEhbhh+0x18>
}
   d4e26:	e8bd 41f0 	ldmia.w	sp!, {r4, r5, r6, r7, r8, lr}
  else writeCommandUpper(commandAddress, registerContents);
   d4e2a:	f7ff bfcd 	b.w	d4dc8 <_ZN8VCNL404017writeCommandUpperEhh>

000d4e2e <_ZN8VCNL404014setIRDutyCycleEt>:
  if(dutyValue > 320 - 1) dutyValue = VCNL4040_PS_DUTY_320;
   d4e2e:	f5b1 7fa0 	cmp.w	r1, #320	; 0x140
{
   d4e32:	b507      	push	{r0, r1, r2, lr}
  if(dutyValue > 320 - 1) dutyValue = VCNL4040_PS_DUTY_320;
   d4e34:	d20e      	bcs.n	d4e54 <_ZN8VCNL404014setIRDutyCycleEt+0x26>
  else if(dutyValue > 160 - 1) dutyValue = VCNL4040_PS_DUTY_160;
   d4e36:	299f      	cmp	r1, #159	; 0x9f
   d4e38:	d80e      	bhi.n	d4e58 <_ZN8VCNL404014setIRDutyCycleEt+0x2a>
  else if(dutyValue > 80 - 1) dutyValue = VCNL4040_PS_DUTY_80;
   d4e3a:	294f      	cmp	r1, #79	; 0x4f
  else dutyValue = VCNL4040_PS_DUTY_40;
   d4e3c:	bf8c      	ite	hi
   d4e3e:	2340      	movhi	r3, #64	; 0x40
   d4e40:	2300      	movls	r3, #0
  bitMask(VCNL4040_PS_CONF1, LOWER, VCNL4040_PS_DUTY_MASK, dutyValue);
   d4e42:	9300      	str	r3, [sp, #0]
   d4e44:	2201      	movs	r2, #1
   d4e46:	233f      	movs	r3, #63	; 0x3f
   d4e48:	2103      	movs	r1, #3
   d4e4a:	f7ff ffd2 	bl	d4df2 <_ZN8VCNL40407bitMaskEhbhh>
}
   d4e4e:	b003      	add	sp, #12
   d4e50:	f85d fb04 	ldr.w	pc, [sp], #4
  if(dutyValue > 320 - 1) dutyValue = VCNL4040_PS_DUTY_320;
   d4e54:	23c0      	movs	r3, #192	; 0xc0
   d4e56:	e7f4      	b.n	d4e42 <_ZN8VCNL404014setIRDutyCycleEt+0x14>
  else if(dutyValue > 160 - 1) dutyValue = VCNL4040_PS_DUTY_160;
   d4e58:	2380      	movs	r3, #128	; 0x80
   d4e5a:	e7f2      	b.n	d4e42 <_ZN8VCNL404014setIRDutyCycleEt+0x14>

000d4e5c <_ZN8VCNL404014powerOnAmbientEv>:
{
   d4e5c:	b507      	push	{r0, r1, r2, lr}
  bitMask(VCNL4040_ALS_CONF, LOWER, VCNL4040_ALS_SD_MASK, VCNL4040_ALS_SD_POWER_ON);
   d4e5e:	2100      	movs	r1, #0
   d4e60:	9100      	str	r1, [sp, #0]
   d4e62:	23fe      	movs	r3, #254	; 0xfe
   d4e64:	2201      	movs	r2, #1
   d4e66:	f7ff ffc4 	bl	d4df2 <_ZN8VCNL40407bitMaskEhbhh>
}
   d4e6a:	b003      	add	sp, #12
   d4e6c:	f85d fb04 	ldr.w	pc, [sp], #4

000d4e70 <_ZN8VCNL404022setProxIntegrationTimeEh>:
  if(timeValue > 8 - 1) timeValue = VCNL4040_PS_IT_8T;
   d4e70:	2907      	cmp	r1, #7
{
   d4e72:	b507      	push	{r0, r1, r2, lr}
  if(timeValue > 8 - 1) timeValue = VCNL4040_PS_IT_8T;
   d4e74:	d80f      	bhi.n	d4e96 <_ZN8VCNL404022setProxIntegrationTimeEh+0x26>
  else if(timeValue > 4 - 1) timeValue = VCNL4040_PS_IT_4T;
   d4e76:	2903      	cmp	r1, #3
   d4e78:	d80f      	bhi.n	d4e9a <_ZN8VCNL404022setProxIntegrationTimeEh+0x2a>
  else if(timeValue > 3 - 1) timeValue = VCNL4040_PS_IT_3T;
   d4e7a:	d010      	beq.n	d4e9e <_ZN8VCNL404022setProxIntegrationTimeEh+0x2e>
  else if(timeValue > 2 - 1) timeValue = VCNL4040_PS_IT_2T;
   d4e7c:	2902      	cmp	r1, #2
  else timeValue = VCNL4040_PS_IT_1T;
   d4e7e:	bf0c      	ite	eq
   d4e80:	2304      	moveq	r3, #4
   d4e82:	2300      	movne	r3, #0
  bitMask(VCNL4040_PS_CONF1, LOWER, VCNL4040_PS_IT_MASK, timeValue);
   d4e84:	9300      	str	r3, [sp, #0]
   d4e86:	2201      	movs	r2, #1
   d4e88:	23f1      	movs	r3, #241	; 0xf1
   d4e8a:	2103      	movs	r1, #3
   d4e8c:	f7ff ffb1 	bl	d4df2 <_ZN8VCNL40407bitMaskEhbhh>
}
   d4e90:	b003      	add	sp, #12
   d4e92:	f85d fb04 	ldr.w	pc, [sp], #4
  if(timeValue > 8 - 1) timeValue = VCNL4040_PS_IT_8T;
   d4e96:	230e      	movs	r3, #14
   d4e98:	e7f4      	b.n	d4e84 <_ZN8VCNL404022setProxIntegrationTimeEh+0x14>
  else if(timeValue > 4 - 1) timeValue = VCNL4040_PS_IT_4T;
   d4e9a:	230c      	movs	r3, #12
   d4e9c:	e7f2      	b.n	d4e84 <_ZN8VCNL404022setProxIntegrationTimeEh+0x14>
  else if(timeValue > 3 - 1) timeValue = VCNL4040_PS_IT_3T;
   d4e9e:	2308      	movs	r3, #8
   d4ea0:	e7f0      	b.n	d4e84 <_ZN8VCNL404022setProxIntegrationTimeEh+0x14>

000d4ea2 <_ZN8VCNL404016powerOnProximityEv>:
{
   d4ea2:	b507      	push	{r0, r1, r2, lr}
  bitMask(VCNL4040_PS_CONF1, LOWER, VCNL4040_PS_SD_MASK, VCNL4040_PS_SD_POWER_ON);
   d4ea4:	2300      	movs	r3, #0
   d4ea6:	9300      	str	r3, [sp, #0]
   d4ea8:	2201      	movs	r2, #1
   d4eaa:	23fe      	movs	r3, #254	; 0xfe
   d4eac:	2103      	movs	r1, #3
   d4eae:	f7ff ffa0 	bl	d4df2 <_ZN8VCNL40407bitMaskEhbhh>
}
   d4eb2:	b003      	add	sp, #12
   d4eb4:	f85d fb04 	ldr.w	pc, [sp], #4

000d4eb8 <_ZN8VCNL404017setProxResolutionEh>:
{
   d4eb8:	b507      	push	{r0, r1, r2, lr}
	if(resolutionValue > 16 - 1) resolutionValue = VCNL4040_PS_HD_16_BIT;
   d4eba:	290f      	cmp	r1, #15
	else resolutionValue = VCNL4040_PS_HD_12_BIT;
   d4ebc:	bf8c      	ite	hi
   d4ebe:	2308      	movhi	r3, #8
   d4ec0:	2300      	movls	r3, #0
  bitMask(VCNL4040_PS_CONF2, UPPER, VCNL4040_PS_HD_MASK, resolutionValue);
   d4ec2:	9300      	str	r3, [sp, #0]
   d4ec4:	2200      	movs	r2, #0
   d4ec6:	23f7      	movs	r3, #247	; 0xf7
   d4ec8:	2103      	movs	r1, #3
   d4eca:	f7ff ff92 	bl	d4df2 <_ZN8VCNL40407bitMaskEhbhh>
}
   d4ece:	b003      	add	sp, #12
   d4ed0:	f85d fb04 	ldr.w	pc, [sp], #4

000d4ed4 <_ZN8VCNL404022enableSmartPersistanceEv>:
{
   d4ed4:	b507      	push	{r0, r1, r2, lr}
  bitMask(VCNL4040_PS_CONF3, LOWER, VCNL4040_PS_SMART_PERS_MASK, VCNL4040_PS_SMART_PERS_ENABLE);
   d4ed6:	2302      	movs	r3, #2
   d4ed8:	9300      	str	r3, [sp, #0]
   d4eda:	2201      	movs	r2, #1
   d4edc:	23ef      	movs	r3, #239	; 0xef
   d4ede:	2104      	movs	r1, #4
   d4ee0:	f7ff ff87 	bl	d4df2 <_ZN8VCNL40407bitMaskEhbhh>
}
   d4ee4:	b003      	add	sp, #12
   d4ee6:	f85d fb04 	ldr.w	pc, [sp], #4

000d4eea <_ZN8VCNL404013setLEDCurrentEh>:
	if(currentValue > 200 - 1) currentValue = VCNL4040_LED_200MA;
   d4eea:	29c7      	cmp	r1, #199	; 0xc7
{
   d4eec:	b507      	push	{r0, r1, r2, lr}
	if(currentValue > 200 - 1) currentValue = VCNL4040_LED_200MA;
   d4eee:	d816      	bhi.n	d4f1e <_ZN8VCNL404013setLEDCurrentEh+0x34>
	else if(currentValue > 180 - 1) currentValue = VCNL4040_LED_180MA;
   d4ef0:	29b3      	cmp	r1, #179	; 0xb3
   d4ef2:	d816      	bhi.n	d4f22 <_ZN8VCNL404013setLEDCurrentEh+0x38>
	else if(currentValue > 160 - 1) currentValue = VCNL4040_LED_160MA;
   d4ef4:	299f      	cmp	r1, #159	; 0x9f
   d4ef6:	d816      	bhi.n	d4f26 <_ZN8VCNL404013setLEDCurrentEh+0x3c>
	else if(currentValue > 140 - 1) currentValue = VCNL4040_LED_140MA;
   d4ef8:	298b      	cmp	r1, #139	; 0x8b
   d4efa:	d816      	bhi.n	d4f2a <_ZN8VCNL404013setLEDCurrentEh+0x40>
	else if(currentValue > 120 - 1) currentValue = VCNL4040_LED_120MA;
   d4efc:	2977      	cmp	r1, #119	; 0x77
   d4efe:	d816      	bhi.n	d4f2e <_ZN8VCNL404013setLEDCurrentEh+0x44>
	else if(currentValue > 100 - 1) currentValue = VCNL4040_LED_100MA;
   d4f00:	2963      	cmp	r1, #99	; 0x63
   d4f02:	d816      	bhi.n	d4f32 <_ZN8VCNL404013setLEDCurrentEh+0x48>
	if(currentValue > 200 - 1) currentValue = VCNL4040_LED_200MA;
   d4f04:	294a      	cmp	r1, #74	; 0x4a
   d4f06:	bf94      	ite	ls
   d4f08:	2100      	movls	r1, #0
   d4f0a:	2101      	movhi	r1, #1
	bitMask(VCNL4040_PS_MS, UPPER, VCNL4040_LED_I_MASK, currentValue);
   d4f0c:	9100      	str	r1, [sp, #0]
   d4f0e:	23f8      	movs	r3, #248	; 0xf8
   d4f10:	2200      	movs	r2, #0
   d4f12:	2104      	movs	r1, #4
   d4f14:	f7ff ff6d 	bl	d4df2 <_ZN8VCNL40407bitMaskEhbhh>
}
   d4f18:	b003      	add	sp, #12
   d4f1a:	f85d fb04 	ldr.w	pc, [sp], #4
	if(currentValue > 200 - 1) currentValue = VCNL4040_LED_200MA;
   d4f1e:	2107      	movs	r1, #7
   d4f20:	e7f4      	b.n	d4f0c <_ZN8VCNL404013setLEDCurrentEh+0x22>
	else if(currentValue > 180 - 1) currentValue = VCNL4040_LED_180MA;
   d4f22:	2106      	movs	r1, #6
   d4f24:	e7f2      	b.n	d4f0c <_ZN8VCNL404013setLEDCurrentEh+0x22>
	else if(currentValue > 160 - 1) currentValue = VCNL4040_LED_160MA;
   d4f26:	2105      	movs	r1, #5
   d4f28:	e7f0      	b.n	d4f0c <_ZN8VCNL404013setLEDCurrentEh+0x22>
	else if(currentValue > 140 - 1) currentValue = VCNL4040_LED_140MA;
   d4f2a:	2104      	movs	r1, #4
   d4f2c:	e7ee      	b.n	d4f0c <_ZN8VCNL404013setLEDCurrentEh+0x22>
	else if(currentValue > 120 - 1) currentValue = VCNL4040_LED_120MA;
   d4f2e:	2103      	movs	r1, #3
   d4f30:	e7ec      	b.n	d4f0c <_ZN8VCNL404013setLEDCurrentEh+0x22>
	else if(currentValue > 100 - 1) currentValue = VCNL4040_LED_100MA;
   d4f32:	2102      	movs	r1, #2
   d4f34:	e7ea      	b.n	d4f0c <_ZN8VCNL404013setLEDCurrentEh+0x22>

000d4f36 <_ZN8VCNL40405beginER7TwoWire>:
boolean VCNL4040::begin(TwoWire &wirePort) {
   d4f36:	b538      	push	{r3, r4, r5, lr}
   d4f38:	4604      	mov	r4, r0
   d4f3a:	4608      	mov	r0, r1
  _i2cPort = &wirePort; //Grab which port the user wants us to use
   d4f3c:	6021      	str	r1, [r4, #0]
  _i2cPort->begin();
   d4f3e:	f001 fb1f 	bl	d6580 <_ZN7TwoWire5beginEv>
  if (isConnected() == false) return (false); //I2C comm failure
   d4f42:	4620      	mov	r0, r4
   d4f44:	f7ff fed2 	bl	d4cec <_ZN8VCNL404011isConnectedEv>
   d4f48:	4605      	mov	r5, r0
   d4f4a:	b910      	cbnz	r0, d4f52 <_ZN8VCNL40405beginER7TwoWire+0x1c>
   d4f4c:	2500      	movs	r5, #0
}
   d4f4e:	4628      	mov	r0, r5
   d4f50:	bd38      	pop	{r3, r4, r5, pc}
  if (getID() != 0x0186) return (false); //Check default ID value
   d4f52:	4620      	mov	r0, r4
   d4f54:	f7ff ff09 	bl	d4d6a <_ZN8VCNL40405getIDEv>
   d4f58:	f5b0 7fc3 	cmp.w	r0, #390	; 0x186
   d4f5c:	d1f6      	bne.n	d4f4c <_ZN8VCNL40405beginER7TwoWire+0x16>
  setLEDCurrent(200); //Max IR LED current
   d4f5e:	4620      	mov	r0, r4
   d4f60:	21c8      	movs	r1, #200	; 0xc8
   d4f62:	f7ff ffc2 	bl	d4eea <_ZN8VCNL404013setLEDCurrentEh>
  setIRDutyCycle(40); //Set to highest duty cycle
   d4f66:	4620      	mov	r0, r4
   d4f68:	2128      	movs	r1, #40	; 0x28
   d4f6a:	f7ff ff60 	bl	d4e2e <_ZN8VCNL404014setIRDutyCycleEt>
  setProxIntegrationTime(8); //Set to max integration
   d4f6e:	4620      	mov	r0, r4
   d4f70:	2108      	movs	r1, #8
   d4f72:	f7ff ff7d 	bl	d4e70 <_ZN8VCNL404022setProxIntegrationTimeEh>
  setProxResolution(16); //Set to 16-bit output
   d4f76:	2110      	movs	r1, #16
   d4f78:	4620      	mov	r0, r4
   d4f7a:	f7ff ff9d 	bl	d4eb8 <_ZN8VCNL404017setProxResolutionEh>
  enableSmartPersistance(); //Turn on smart presistance
   d4f7e:	4620      	mov	r0, r4
   d4f80:	f7ff ffa8 	bl	d4ed4 <_ZN8VCNL404022enableSmartPersistanceEv>
  powerOnProximity(); //Turn on prox sensing
   d4f84:	4620      	mov	r0, r4
   d4f86:	f7ff ff8c 	bl	d4ea2 <_ZN8VCNL404016powerOnProximityEv>
  return (true);
   d4f8a:	e7e0      	b.n	d4f4e <_ZN8VCNL40405beginER7TwoWire+0x18>

000d4f8c <_ZN16Adafruit_SSD1306D1Ev>:
}

/*!
    @brief  Destructor for Adafruit_SSD1306 object.
*/
Adafruit_SSD1306::~Adafruit_SSD1306(void) {
   d4f8c:	b510      	push	{r4, lr}
   d4f8e:	4b04      	ldr	r3, [pc, #16]	; (d4fa0 <_ZN16Adafruit_SSD1306D1Ev+0x14>)
   d4f90:	6003      	str	r3, [r0, #0]
   d4f92:	4604      	mov	r4, r0
  if(buffer) {
   d4f94:	6ac0      	ldr	r0, [r0, #44]	; 0x2c
   d4f96:	b108      	cbz	r0, d4f9c <_ZN16Adafruit_SSD1306D1Ev+0x10>
    free(buffer);
   d4f98:	f000 fe9a 	bl	d5cd0 <free>
    buffer = NULL;
  }
}
   d4f9c:	4620      	mov	r0, r4
   d4f9e:	bd10      	pop	{r4, pc}
   d4fa0:	000d7500 	.word	0x000d7500

000d4fa4 <_ZN16Adafruit_SSD1306D0Ev>:
Adafruit_SSD1306::~Adafruit_SSD1306(void) {
   d4fa4:	b510      	push	{r4, lr}
   d4fa6:	4604      	mov	r4, r0
}
   d4fa8:	f7ff fff0 	bl	d4f8c <_ZN16Adafruit_SSD1306D1Ev>
   d4fac:	4620      	mov	r0, r4
   d4fae:	2150      	movs	r1, #80	; 0x50
   d4fb0:	f001 fcd5 	bl	d695e <_ZdlPvj>
   d4fb4:	4620      	mov	r0, r4
   d4fb6:	bd10      	pop	{r4, pc}

000d4fb8 <_ZN16Adafruit_SSD13069drawPixelEsst>:
    @note   Changes buffer contents only, no immediate effect on display.
            Follow up with a call to display(), or with other graphics
            commands as needed by one's own application.
*/
void Adafruit_SSD1306::drawPixel(int16_t x, int16_t y, uint16_t color) {
  if((x >= 0) && (x < width()) && (y >= 0) && (y < height())) {
   d4fb8:	2900      	cmp	r1, #0
void Adafruit_SSD1306::drawPixel(int16_t x, int16_t y, uint16_t color) {
   d4fba:	b510      	push	{r4, lr}
  if((x >= 0) && (x < width()) && (y >= 0) && (y < height())) {
   d4fbc:	db4b      	blt.n	d5056 <_ZN16Adafruit_SSD13069drawPixelEsst+0x9e>
   d4fbe:	f9b0 400c 	ldrsh.w	r4, [r0, #12]
   d4fc2:	428c      	cmp	r4, r1
   d4fc4:	dd47      	ble.n	d5056 <_ZN16Adafruit_SSD13069drawPixelEsst+0x9e>
   d4fc6:	2a00      	cmp	r2, #0
   d4fc8:	db45      	blt.n	d5056 <_ZN16Adafruit_SSD13069drawPixelEsst+0x9e>
   d4fca:	f9b0 400e 	ldrsh.w	r4, [r0, #14]
   d4fce:	4294      	cmp	r4, r2
   d4fd0:	dd41      	ble.n	d5056 <_ZN16Adafruit_SSD13069drawPixelEsst+0x9e>
    // Pixel is in-bounds. Rotate coordinates if needed.
    switch(getRotation()) {
   d4fd2:	7e84      	ldrb	r4, [r0, #26]
   d4fd4:	2c02      	cmp	r4, #2
   d4fd6:	d01f      	beq.n	d5018 <_ZN16Adafruit_SSD13069drawPixelEsst+0x60>
   d4fd8:	2c03      	cmp	r4, #3
   d4fda:	d026      	beq.n	d502a <_ZN16Adafruit_SSD13069drawPixelEsst+0x72>
   d4fdc:	2c01      	cmp	r4, #1
   d4fde:	d104      	bne.n	d4fea <_ZN16Adafruit_SSD13069drawPixelEsst+0x32>
     case 1:
      ssd1306_swap(x, y);
      x = WIDTH - x - 1;
   d4fe0:	8904      	ldrh	r4, [r0, #8]
   d4fe2:	43d2      	mvns	r2, r2
   d4fe4:	4414      	add	r4, r2
      break;
   d4fe6:	460a      	mov	r2, r1
      x = WIDTH - x - 1;
   d4fe8:	b221      	sxth	r1, r4
     case 3:
      ssd1306_swap(x, y);
      y = HEIGHT - y - 1;
      break;
    }
    switch(color) {
   d4fea:	2b01      	cmp	r3, #1
   d4fec:	d023      	beq.n	d5036 <_ZN16Adafruit_SSD13069drawPixelEsst+0x7e>
   d4fee:	2b02      	cmp	r3, #2
   d4ff0:	d032      	beq.n	d5058 <_ZN16Adafruit_SSD13069drawPixelEsst+0xa0>
   d4ff2:	bb83      	cbnz	r3, d5056 <_ZN16Adafruit_SSD13069drawPixelEsst+0x9e>
     case WHITE:   buffer[x + (y/8)*WIDTH] |=  (1 << (y&7)); break;
     case BLACK:   buffer[x + (y/8)*WIDTH] &= ~(1 << (y&7)); break;
   d4ff4:	2a00      	cmp	r2, #0
   d4ff6:	4613      	mov	r3, r2
   d4ff8:	8904      	ldrh	r4, [r0, #8]
   d4ffa:	6ac0      	ldr	r0, [r0, #44]	; 0x2c
   d4ffc:	bfb8      	it	lt
   d4ffe:	1dd3      	addlt	r3, r2, #7
   d5000:	10db      	asrs	r3, r3, #3
   d5002:	fb13 1104 	smlabb	r1, r3, r4, r1
   d5006:	f002 0207 	and.w	r2, r2, #7
   d500a:	2301      	movs	r3, #1
   d500c:	4093      	lsls	r3, r2
   d500e:	5c42      	ldrb	r2, [r0, r1]
   d5010:	ea22 0203 	bic.w	r2, r2, r3
     case INVERSE: buffer[x + (y/8)*WIDTH] ^=  (1 << (y&7)); break;
   d5014:	5442      	strb	r2, [r0, r1]
    }
  }
}
   d5016:	e01e      	b.n	d5056 <_ZN16Adafruit_SSD13069drawPixelEsst+0x9e>
      x = WIDTH  - x - 1;
   d5018:	8904      	ldrh	r4, [r0, #8]
   d501a:	43c9      	mvns	r1, r1
   d501c:	4421      	add	r1, r4
      y = HEIGHT - y - 1;
   d501e:	8944      	ldrh	r4, [r0, #10]
   d5020:	43d2      	mvns	r2, r2
   d5022:	4422      	add	r2, r4
      x = WIDTH  - x - 1;
   d5024:	b209      	sxth	r1, r1
      y = HEIGHT - y - 1;
   d5026:	b212      	sxth	r2, r2
      break;
   d5028:	e7df      	b.n	d4fea <_ZN16Adafruit_SSD13069drawPixelEsst+0x32>
      y = HEIGHT - y - 1;
   d502a:	8944      	ldrh	r4, [r0, #10]
   d502c:	43c9      	mvns	r1, r1
   d502e:	440c      	add	r4, r1
      break;
   d5030:	4611      	mov	r1, r2
      y = HEIGHT - y - 1;
   d5032:	b222      	sxth	r2, r4
      break;
   d5034:	e7d9      	b.n	d4fea <_ZN16Adafruit_SSD13069drawPixelEsst+0x32>
     case WHITE:   buffer[x + (y/8)*WIDTH] |=  (1 << (y&7)); break;
   d5036:	2a00      	cmp	r2, #0
   d5038:	8904      	ldrh	r4, [r0, #8]
   d503a:	4613      	mov	r3, r2
   d503c:	bfb8      	it	lt
   d503e:	1dd3      	addlt	r3, r2, #7
   d5040:	10db      	asrs	r3, r3, #3
   d5042:	fb13 1104 	smlabb	r1, r3, r4, r1
   d5046:	6ac3      	ldr	r3, [r0, #44]	; 0x2c
   d5048:	f002 0007 	and.w	r0, r2, #7
   d504c:	2201      	movs	r2, #1
   d504e:	4082      	lsls	r2, r0
   d5050:	5c58      	ldrb	r0, [r3, r1]
   d5052:	4302      	orrs	r2, r0
   d5054:	545a      	strb	r2, [r3, r1]
}
   d5056:	bd10      	pop	{r4, pc}
     case INVERSE: buffer[x + (y/8)*WIDTH] ^=  (1 << (y&7)); break;
   d5058:	2a00      	cmp	r2, #0
   d505a:	4613      	mov	r3, r2
   d505c:	8904      	ldrh	r4, [r0, #8]
   d505e:	6ac0      	ldr	r0, [r0, #44]	; 0x2c
   d5060:	bfb8      	it	lt
   d5062:	1dd3      	addlt	r3, r2, #7
   d5064:	10db      	asrs	r3, r3, #3
   d5066:	fb13 1104 	smlabb	r1, r3, r4, r1
   d506a:	f002 0207 	and.w	r2, r2, #7
   d506e:	2301      	movs	r3, #1
   d5070:	fa03 f202 	lsl.w	r2, r3, r2
   d5074:	5c43      	ldrb	r3, [r0, r1]
   d5076:	405a      	eors	r2, r3
   d5078:	e7cc      	b.n	d5014 <_ZN16Adafruit_SSD13069drawPixelEsst+0x5c>

000d507a <_ZN16Adafruit_SSD130610stopscrollEv.part.0>:
            display() function -- buffer contents are not changed, rather a
            different pixel mode of the display hardware is used. When
            enabled, drawing BLACK (value 0) pixels will actually draw white,
            WHITE (value 1) will draw black.
*/
void Adafruit_SSD1306::invertDisplay(boolean i) {
   d507a:	b510      	push	{r4, lr}
   d507c:	4604      	mov	r4, r0
  TRANSACTION_START
  ssd1306_command1(i ? SSD1306_INVERTDISPLAY : SSD1306_NORMALDISPLAY);
  TRANSACTION_END
   d507e:	f990 0036 	ldrsb.w	r0, [r0, #54]	; 0x36
   d5082:	2101      	movs	r1, #1
   d5084:	b280      	uxth	r0, r0
   d5086:	f001 fbf8 	bl	d687a <digitalWrite>
   d508a:	6a60      	ldr	r0, [r4, #36]	; 0x24
   d508c:	b118      	cbz	r0, d5096 <_ZN16Adafruit_SSD130610stopscrollEv.part.0+0x1c>
}
   d508e:	e8bd 4010 	ldmia.w	sp!, {r4, lr}
  TRANSACTION_END
   d5092:	f000 be94 	b.w	d5dbe <_ZN8SPIClass14endTransactionEv>
}
   d5096:	bd10      	pop	{r4, pc}

000d5098 <_ZN16Adafruit_SSD1306C1EhhP7TwoWireamm>:
Adafruit_SSD1306::Adafruit_SSD1306(uint8_t w, uint8_t h, TwoWire *twi,
   d5098:	b570      	push	{r4, r5, r6, lr}
   d509a:	4604      	mov	r4, r0
   d509c:	461d      	mov	r5, r3
  wireClk(clkDuring), restoreClk(clkAfter) {
   d509e:	2600      	movs	r6, #0
   d50a0:	f7ff fabe 	bl	d4620 <_ZN12Adafruit_GFXC1Ess>
   d50a4:	4b11      	ldr	r3, [pc, #68]	; (d50ec <_ZN16Adafruit_SSD1306C1EhhP7TwoWireamm+0x54>)
   d50a6:	6023      	str	r3, [r4, #0]
   d50a8:	6266      	str	r6, [r4, #36]	; 0x24
  Adafruit_GFX(w, h), spi(NULL), wire(twi ? twi : &Wire), buffer(NULL),
   d50aa:	b915      	cbnz	r5, d50b2 <_ZN16Adafruit_SSD1306C1EhhP7TwoWireamm+0x1a>
   d50ac:	f001 fc2a 	bl	d6904 <_Z19__fetch_global_Wirev>
   d50b0:	4605      	mov	r5, r0
  wireClk(clkDuring), restoreClk(clkAfter) {
   d50b2:	23ff      	movs	r3, #255	; 0xff
   d50b4:	f884 3033 	strb.w	r3, [r4, #51]	; 0x33
   d50b8:	f884 3036 	strb.w	r3, [r4, #54]	; 0x36
   d50bc:	f99d 3010 	ldrsb.w	r3, [sp, #16]
   d50c0:	f884 3037 	strb.w	r3, [r4, #55]	; 0x37
  {
   d50c4:	4b0a      	ldr	r3, [pc, #40]	; (d50f0 <_ZN16Adafruit_SSD1306C1EhhP7TwoWireamm+0x58>)
   d50c6:	63a3      	str	r3, [r4, #56]	; 0x38
   d50c8:	2301      	movs	r3, #1
   d50ca:	f884 303c 	strb.w	r3, [r4, #60]	; 0x3c
   d50ce:	9b05      	ldr	r3, [sp, #20]
   d50d0:	64a3      	str	r3, [r4, #72]	; 0x48
   d50d2:	f64f 72ff 	movw	r2, #65535	; 0xffff
   d50d6:	9b06      	ldr	r3, [sp, #24]
   d50d8:	86a2      	strh	r2, [r4, #52]	; 0x34
   d50da:	e9c4 560a 	strd	r5, r6, [r4, #40]	; 0x28
   d50de:	6426      	str	r6, [r4, #64]	; 0x40
   d50e0:	f8a4 6044 	strh.w	r6, [r4, #68]	; 0x44
   d50e4:	64e3      	str	r3, [r4, #76]	; 0x4c
}
   d50e6:	4620      	mov	r0, r4
   d50e8:	bd70      	pop	{r4, r5, r6, pc}
   d50ea:	bf00      	nop
   d50ec:	000d7500 	.word	0x000d7500
   d50f0:	000d704c 	.word	0x000d704c

000d50f4 <_ZN16Adafruit_SSD130616ssd1306_command1Eh>:
void Adafruit_SSD1306::ssd1306_command1(uint8_t c) {
   d50f4:	b5f8      	push	{r3, r4, r5, r6, r7, lr}
   d50f6:	4604      	mov	r4, r0
  if(wire) { // I2C
   d50f8:	6a80      	ldr	r0, [r0, #40]	; 0x28
void Adafruit_SSD1306::ssd1306_command1(uint8_t c) {
   d50fa:	460d      	mov	r5, r1
  if(wire) { // I2C
   d50fc:	b190      	cbz	r0, d5124 <_ZN16Adafruit_SSD130616ssd1306_command1Eh+0x30>
    wire->beginTransmission(i2caddr);
   d50fe:	f994 1030 	ldrsb.w	r1, [r4, #48]	; 0x30
   d5102:	f001 fa73 	bl	d65ec <_ZN7TwoWire17beginTransmissionEi>
    WIRE_WRITE((uint8_t)0x00); // Co = 0, D/C = 0
   d5106:	6aa0      	ldr	r0, [r4, #40]	; 0x28
   d5108:	6803      	ldr	r3, [r0, #0]
   d510a:	2100      	movs	r1, #0
   d510c:	689b      	ldr	r3, [r3, #8]
   d510e:	4798      	blx	r3
    WIRE_WRITE(c);
   d5110:	6aa0      	ldr	r0, [r4, #40]	; 0x28
   d5112:	6803      	ldr	r3, [r0, #0]
   d5114:	4629      	mov	r1, r5
   d5116:	689b      	ldr	r3, [r3, #8]
   d5118:	4798      	blx	r3
    wire->endTransmission();
   d511a:	6aa0      	ldr	r0, [r4, #40]	; 0x28
}
   d511c:	e8bd 40f8 	ldmia.w	sp!, {r3, r4, r5, r6, r7, lr}
    wire->endTransmission();
   d5120:	f001 ba6b 	b.w	d65fa <_ZN7TwoWire15endTransmissionEv>
    SSD1306_MODE_COMMAND
   d5124:	f994 3035 	ldrsb.w	r3, [r4, #53]	; 0x35
   d5128:	4601      	mov	r1, r0
   d512a:	b298      	uxth	r0, r3
   d512c:	f001 fba5 	bl	d687a <digitalWrite>
  if(spi) {
   d5130:	6a60      	ldr	r0, [r4, #36]	; 0x24
   d5132:	b120      	cbz	r0, d513e <_ZN16Adafruit_SSD130616ssd1306_command1Eh+0x4a>
    (void)spi->transfer(d);
   d5134:	4629      	mov	r1, r5
}
   d5136:	e8bd 40f8 	ldmia.w	sp!, {r3, r4, r5, r6, r7, lr}
    (void)spi->transfer(d);
   d513a:	f000 bec7 	b.w	d5ecc <_ZN8SPIClass8transferEh>
   d513e:	2608      	movs	r6, #8
    for(uint8_t bit = 0x80; bit; bit >>= 1) {
   d5140:	2780      	movs	r7, #128	; 0x80
      digitalWrite(mosiPin, d & bit);
   d5142:	f994 0033 	ldrsb.w	r0, [r4, #51]	; 0x33
   d5146:	ea05 0107 	and.w	r1, r5, r7
   d514a:	b280      	uxth	r0, r0
   d514c:	f001 fb95 	bl	d687a <digitalWrite>
      digitalWrite(clkPin , HIGH);
   d5150:	f994 0034 	ldrsb.w	r0, [r4, #52]	; 0x34
   d5154:	2101      	movs	r1, #1
   d5156:	b280      	uxth	r0, r0
   d5158:	f001 fb8f 	bl	d687a <digitalWrite>
      digitalWrite(clkPin , LOW);
   d515c:	f994 0034 	ldrsb.w	r0, [r4, #52]	; 0x34
   d5160:	2100      	movs	r1, #0
   d5162:	b280      	uxth	r0, r0
   d5164:	f001 fb89 	bl	d687a <digitalWrite>
    for(uint8_t bit = 0x80; bit; bit >>= 1) {
   d5168:	3e01      	subs	r6, #1
   d516a:	ea4f 0757 	mov.w	r7, r7, lsr #1
   d516e:	d1e8      	bne.n	d5142 <_ZN16Adafruit_SSD130616ssd1306_command1Eh+0x4e>
}
   d5170:	bdf8      	pop	{r3, r4, r5, r6, r7, pc}

000d5172 <_ZN16Adafruit_SSD130613invertDisplayEb>:
void Adafruit_SSD1306::invertDisplay(boolean i) {
   d5172:	b538      	push	{r3, r4, r5, lr}
   d5174:	4604      	mov	r4, r0
  TRANSACTION_START
   d5176:	6a80      	ldr	r0, [r0, #40]	; 0x28
void Adafruit_SSD1306::invertDisplay(boolean i) {
   d5178:	460d      	mov	r5, r1
  TRANSACTION_START
   d517a:	b180      	cbz	r0, d519e <_ZN16Adafruit_SSD130613invertDisplayEb+0x2c>
	  setSpeed(speed);
   d517c:	6ca1      	ldr	r1, [r4, #72]	; 0x48
   d517e:	f001 f9fb 	bl	d6578 <_ZN7TwoWire8setSpeedEm>
  ssd1306_command1(i ? SSD1306_INVERTDISPLAY : SSD1306_NORMALDISPLAY);
   d5182:	2d00      	cmp	r5, #0
   d5184:	4620      	mov	r0, r4
   d5186:	bf14      	ite	ne
   d5188:	21a7      	movne	r1, #167	; 0xa7
   d518a:	21a6      	moveq	r1, #166	; 0xa6
   d518c:	f7ff ffb2 	bl	d50f4 <_ZN16Adafruit_SSD130616ssd1306_command1Eh>
  TRANSACTION_END
   d5190:	6aa0      	ldr	r0, [r4, #40]	; 0x28
   d5192:	b188      	cbz	r0, d51b8 <_ZN16Adafruit_SSD130613invertDisplayEb+0x46>
   d5194:	6ce1      	ldr	r1, [r4, #76]	; 0x4c
}
   d5196:	e8bd 4038 	ldmia.w	sp!, {r3, r4, r5, lr}
   d519a:	f001 b9ed 	b.w	d6578 <_ZN7TwoWire8setSpeedEm>
  TRANSACTION_START
   d519e:	6a60      	ldr	r0, [r4, #36]	; 0x24
   d51a0:	b118      	cbz	r0, d51aa <_ZN16Adafruit_SSD130613invertDisplayEb+0x38>
   d51a2:	f104 0138 	add.w	r1, r4, #56	; 0x38
   d51a6:	f000 fe23 	bl	d5df0 <_ZN8SPIClass16beginTransactionERKN8particle11SPISettingsE>
   d51aa:	f994 0036 	ldrsb.w	r0, [r4, #54]	; 0x36
   d51ae:	2100      	movs	r1, #0
   d51b0:	b280      	uxth	r0, r0
   d51b2:	f001 fb62 	bl	d687a <digitalWrite>
   d51b6:	e7e4      	b.n	d5182 <_ZN16Adafruit_SSD130613invertDisplayEb+0x10>
   d51b8:	4620      	mov	r0, r4
}
   d51ba:	e8bd 4038 	ldmia.w	sp!, {r3, r4, r5, lr}
   d51be:	f7ff bf5c 	b.w	d507a <_ZN16Adafruit_SSD130610stopscrollEv.part.0>

000d51c2 <_ZN16Adafruit_SSD130619ssd1306_commandListEPKhh>:
void Adafruit_SSD1306::ssd1306_commandList(const uint8_t *c, uint8_t n) {
   d51c2:	e92d 43f8 	stmdb	sp!, {r3, r4, r5, r6, r7, r8, r9, lr}
   d51c6:	4604      	mov	r4, r0
  if(wire) { // I2C
   d51c8:	6a80      	ldr	r0, [r0, #40]	; 0x28
void Adafruit_SSD1306::ssd1306_commandList(const uint8_t *c, uint8_t n) {
   d51ca:	460d      	mov	r5, r1
  if(wire) { // I2C
   d51cc:	188f      	adds	r7, r1, r2
   d51ce:	b340      	cbz	r0, d5222 <_ZN16Adafruit_SSD130619ssd1306_commandListEPKhh+0x60>
    wire->beginTransmission(i2caddr);
   d51d0:	f994 1030 	ldrsb.w	r1, [r4, #48]	; 0x30
   d51d4:	f001 fa0a 	bl	d65ec <_ZN7TwoWire17beginTransmissionEi>
    WIRE_WRITE((uint8_t)0x00); // Co = 0, D/C = 0
   d51d8:	6aa0      	ldr	r0, [r4, #40]	; 0x28
   d51da:	6803      	ldr	r3, [r0, #0]
   d51dc:	2100      	movs	r1, #0
   d51de:	689b      	ldr	r3, [r3, #8]
   d51e0:	4798      	blx	r3
    uint8_t bytesOut = 1;
   d51e2:	2601      	movs	r6, #1
    while(n--) {
   d51e4:	42bd      	cmp	r5, r7
   d51e6:	6aa0      	ldr	r0, [r4, #40]	; 0x28
   d51e8:	d017      	beq.n	d521a <_ZN16Adafruit_SSD130619ssd1306_commandListEPKhh+0x58>
      if(bytesOut >= WIRE_MAX) {
   d51ea:	2e1f      	cmp	r6, #31
   d51ec:	d90c      	bls.n	d5208 <_ZN16Adafruit_SSD130619ssd1306_commandListEPKhh+0x46>
        wire->endTransmission();
   d51ee:	f001 fa04 	bl	d65fa <_ZN7TwoWire15endTransmissionEv>
        wire->beginTransmission(i2caddr);
   d51f2:	f994 1030 	ldrsb.w	r1, [r4, #48]	; 0x30
   d51f6:	6aa0      	ldr	r0, [r4, #40]	; 0x28
   d51f8:	f001 f9f8 	bl	d65ec <_ZN7TwoWire17beginTransmissionEi>
        WIRE_WRITE((uint8_t)0x00); // Co = 0, D/C = 0
   d51fc:	6aa0      	ldr	r0, [r4, #40]	; 0x28
   d51fe:	6803      	ldr	r3, [r0, #0]
   d5200:	2100      	movs	r1, #0
   d5202:	689b      	ldr	r3, [r3, #8]
   d5204:	4798      	blx	r3
        bytesOut = 1;
   d5206:	2601      	movs	r6, #1
      WIRE_WRITE(pgm_read_byte(c++));
   d5208:	6aa0      	ldr	r0, [r4, #40]	; 0x28
   d520a:	f815 1b01 	ldrb.w	r1, [r5], #1
   d520e:	6803      	ldr	r3, [r0, #0]
      bytesOut++;
   d5210:	3601      	adds	r6, #1
      WIRE_WRITE(pgm_read_byte(c++));
   d5212:	689b      	ldr	r3, [r3, #8]
   d5214:	4798      	blx	r3
      bytesOut++;
   d5216:	b2f6      	uxtb	r6, r6
    while(n--) {
   d5218:	e7e4      	b.n	d51e4 <_ZN16Adafruit_SSD130619ssd1306_commandListEPKhh+0x22>
}
   d521a:	e8bd 43f8 	ldmia.w	sp!, {r3, r4, r5, r6, r7, r8, r9, lr}
    wire->endTransmission();
   d521e:	f001 b9ec 	b.w	d65fa <_ZN7TwoWire15endTransmissionEv>
    SSD1306_MODE_COMMAND
   d5222:	f994 3035 	ldrsb.w	r3, [r4, #53]	; 0x35
   d5226:	4601      	mov	r1, r0
   d5228:	b298      	uxth	r0, r3
   d522a:	f001 fb26 	bl	d687a <digitalWrite>
    while(n--) SPIwrite(pgm_read_byte(c++));
   d522e:	42af      	cmp	r7, r5
   d5230:	d022      	beq.n	d5278 <_ZN16Adafruit_SSD130619ssd1306_commandListEPKhh+0xb6>
  if(spi) {
   d5232:	6a60      	ldr	r0, [r4, #36]	; 0x24
    while(n--) SPIwrite(pgm_read_byte(c++));
   d5234:	f815 9b01 	ldrb.w	r9, [r5], #1
  if(spi) {
   d5238:	b118      	cbz	r0, d5242 <_ZN16Adafruit_SSD130619ssd1306_commandListEPKhh+0x80>
    (void)spi->transfer(d);
   d523a:	4649      	mov	r1, r9
   d523c:	f000 fe46 	bl	d5ecc <_ZN8SPIClass8transferEh>
   d5240:	e7f5      	b.n	d522e <_ZN16Adafruit_SSD130619ssd1306_commandListEPKhh+0x6c>
   d5242:	2608      	movs	r6, #8
    for(uint8_t bit = 0x80; bit; bit >>= 1) {
   d5244:	f04f 0880 	mov.w	r8, #128	; 0x80
      digitalWrite(mosiPin, d & bit);
   d5248:	f994 0033 	ldrsb.w	r0, [r4, #51]	; 0x33
   d524c:	ea09 0108 	and.w	r1, r9, r8
   d5250:	b280      	uxth	r0, r0
   d5252:	f001 fb12 	bl	d687a <digitalWrite>
      digitalWrite(clkPin , HIGH);
   d5256:	f994 0034 	ldrsb.w	r0, [r4, #52]	; 0x34
   d525a:	2101      	movs	r1, #1
   d525c:	b280      	uxth	r0, r0
   d525e:	f001 fb0c 	bl	d687a <digitalWrite>
      digitalWrite(clkPin , LOW);
   d5262:	f994 0034 	ldrsb.w	r0, [r4, #52]	; 0x34
   d5266:	2100      	movs	r1, #0
   d5268:	b280      	uxth	r0, r0
   d526a:	f001 fb06 	bl	d687a <digitalWrite>
    for(uint8_t bit = 0x80; bit; bit >>= 1) {
   d526e:	3e01      	subs	r6, #1
   d5270:	ea4f 0858 	mov.w	r8, r8, lsr #1
   d5274:	d1e8      	bne.n	d5248 <_ZN16Adafruit_SSD130619ssd1306_commandListEPKhh+0x86>
   d5276:	e7da      	b.n	d522e <_ZN16Adafruit_SSD130619ssd1306_commandListEPKhh+0x6c>
}
   d5278:	e8bd 83f8 	ldmia.w	sp!, {r3, r4, r5, r6, r7, r8, r9, pc}

000d527c <_ZN16Adafruit_SSD130612clearDisplayEv>:
  memset(buffer, 0, WIDTH * ((HEIGHT + 7) / 8));
   d527c:	f9b0 300a 	ldrsh.w	r3, [r0, #10]
   d5280:	1dda      	adds	r2, r3, #7
   d5282:	bf48      	it	mi
   d5284:	f103 020e 	addmi.w	r2, r3, #14
   d5288:	f9b0 3008 	ldrsh.w	r3, [r0, #8]
   d528c:	6ac0      	ldr	r0, [r0, #44]	; 0x2c
   d528e:	10d2      	asrs	r2, r2, #3
   d5290:	435a      	muls	r2, r3
   d5292:	2100      	movs	r1, #0
   d5294:	f001 bb84 	b.w	d69a0 <memset>

000d5298 <_ZN16Adafruit_SSD13065beginEhhbb>:
  boolean periphBegin) {
   d5298:	e92d 41ff 	stmdb	sp!, {r0, r1, r2, r3, r4, r5, r6, r7, r8, lr}
   d529c:	461e      	mov	r6, r3
  if((!buffer) && !(buffer = (uint8_t *)malloc(WIDTH * ((HEIGHT + 7) / 8))))
   d529e:	6ac3      	ldr	r3, [r0, #44]	; 0x2c
  boolean periphBegin) {
   d52a0:	f89d 8028 	ldrb.w	r8, [sp, #40]	; 0x28
   d52a4:	4604      	mov	r4, r0
   d52a6:	460f      	mov	r7, r1
   d52a8:	4615      	mov	r5, r2
  if((!buffer) && !(buffer = (uint8_t *)malloc(WIDTH * ((HEIGHT + 7) / 8))))
   d52aa:	b1b3      	cbz	r3, d52da <_ZN16Adafruit_SSD13065beginEhhbb+0x42>
  clearDisplay();
   d52ac:	4620      	mov	r0, r4
   d52ae:	f7ff ffe5 	bl	d527c <_ZN16Adafruit_SSD130612clearDisplayEv>
  if(HEIGHT > 32) {
   d52b2:	f9b4 000a 	ldrsh.w	r0, [r4, #10]
   d52b6:	f9b4 1008 	ldrsh.w	r1, [r4, #8]
   d52ba:	2820      	cmp	r0, #32
   d52bc:	dc1f      	bgt.n	d52fe <_ZN16Adafruit_SSD13065beginEhhbb+0x66>
    drawBitmap((WIDTH - splash2_width) / 2, (HEIGHT - splash2_height) / 2,
   d52be:	2320      	movs	r3, #32
   d52c0:	2201      	movs	r2, #1
   d52c2:	e9cd 3201 	strd	r3, r2, [sp, #4]
   d52c6:	3820      	subs	r0, #32
   d52c8:	2373      	movs	r3, #115	; 0x73
   d52ca:	3973      	subs	r1, #115	; 0x73
   d52cc:	9300      	str	r3, [sp, #0]
   d52ce:	eb00 70d0 	add.w	r0, r0, r0, lsr #31
   d52d2:	4b89      	ldr	r3, [pc, #548]	; (d54f8 <_ZN16Adafruit_SSD13065beginEhhbb+0x260>)
   d52d4:	eb01 71d1 	add.w	r1, r1, r1, lsr #31
   d52d8:	e01f      	b.n	d531a <_ZN16Adafruit_SSD13065beginEhhbb+0x82>
  if((!buffer) && !(buffer = (uint8_t *)malloc(WIDTH * ((HEIGHT + 7) / 8))))
   d52da:	f9b0 300a 	ldrsh.w	r3, [r0, #10]
   d52de:	1dd8      	adds	r0, r3, #7
   d52e0:	bf48      	it	mi
   d52e2:	f103 000e 	addmi.w	r0, r3, #14
   d52e6:	f9b4 3008 	ldrsh.w	r3, [r4, #8]
   d52ea:	10c0      	asrs	r0, r0, #3
   d52ec:	4358      	muls	r0, r3
   d52ee:	f000 fce7 	bl	d5cc0 <malloc>
   d52f2:	62e0      	str	r0, [r4, #44]	; 0x2c
   d52f4:	2800      	cmp	r0, #0
   d52f6:	d1d9      	bne.n	d52ac <_ZN16Adafruit_SSD13065beginEhhbb+0x14>
}
   d52f8:	b004      	add	sp, #16
   d52fa:	e8bd 81f0 	ldmia.w	sp!, {r4, r5, r6, r7, r8, pc}
    drawBitmap((WIDTH - splash1_width) / 2, (HEIGHT - splash1_height) / 2,
   d52fe:	2340      	movs	r3, #64	; 0x40
   d5300:	f04f 0c01 	mov.w	ip, #1
   d5304:	e9cd 3c01 	strd	r3, ip, [sp, #4]
   d5308:	2352      	movs	r3, #82	; 0x52
   d530a:	3840      	subs	r0, #64	; 0x40
   d530c:	3952      	subs	r1, #82	; 0x52
   d530e:	9300      	str	r3, [sp, #0]
   d5310:	4b7a      	ldr	r3, [pc, #488]	; (d54fc <_ZN16Adafruit_SSD13065beginEhhbb+0x264>)
   d5312:	eb00 70d0 	add.w	r0, r0, r0, lsr #31
   d5316:	eb01 71d1 	add.w	r1, r1, r1, lsr #31
    drawBitmap((WIDTH - splash2_width) / 2, (HEIGHT - splash2_height) / 2,
   d531a:	f340 024f 	sbfx	r2, r0, #1, #16
   d531e:	f341 014f 	sbfx	r1, r1, #1, #16
   d5322:	4620      	mov	r0, r4
   d5324:	f7ff f992 	bl	d464c <_ZN12Adafruit_GFX10drawBitmapEssPKhsst>
  if(wire) { // Using I2C
   d5328:	6aa0      	ldr	r0, [r4, #40]	; 0x28
  vccstate = vcs;
   d532a:	f884 7031 	strb.w	r7, [r4, #49]	; 0x31
  if(wire) { // Using I2C
   d532e:	2800      	cmp	r0, #0
   d5330:	d078      	beq.n	d5424 <_ZN16Adafruit_SSD13065beginEhhbb+0x18c>
    i2caddr = addr ? addr : ((HEIGHT == 32) ? 0x3C : 0x3D);
   d5332:	2d00      	cmp	r5, #0
   d5334:	d174      	bne.n	d5420 <_ZN16Adafruit_SSD13065beginEhhbb+0x188>
   d5336:	f9b4 300a 	ldrsh.w	r3, [r4, #10]
   d533a:	2b20      	cmp	r3, #32
   d533c:	bf0c      	ite	eq
   d533e:	253c      	moveq	r5, #60	; 0x3c
   d5340:	253d      	movne	r5, #61	; 0x3d
   d5342:	f884 5030 	strb.w	r5, [r4, #48]	; 0x30
    if(periphBegin) wire->begin();
   d5346:	f1b8 0f00 	cmp.w	r8, #0
   d534a:	d001      	beq.n	d5350 <_ZN16Adafruit_SSD13065beginEhhbb+0xb8>
   d534c:	f001 f918 	bl	d6580 <_ZN7TwoWire5beginEv>
  if(reset && (rstPin >= 0)) {
   d5350:	b1fe      	cbz	r6, d5392 <_ZN16Adafruit_SSD13065beginEhhbb+0xfa>
   d5352:	f994 0037 	ldrsb.w	r0, [r4, #55]	; 0x37
   d5356:	2800      	cmp	r0, #0
   d5358:	db1b      	blt.n	d5392 <_ZN16Adafruit_SSD13065beginEhhbb+0xfa>
    pinMode(     rstPin, OUTPUT);
   d535a:	2101      	movs	r1, #1
   d535c:	b280      	uxth	r0, r0
   d535e:	f001 fa7b 	bl	d6858 <pinMode>
    digitalWrite(rstPin, HIGH);
   d5362:	f994 0037 	ldrsb.w	r0, [r4, #55]	; 0x37
   d5366:	2101      	movs	r1, #1
   d5368:	b280      	uxth	r0, r0
   d536a:	f001 fa86 	bl	d687a <digitalWrite>
    delay(1);                   // VDD goes high at start, pause for 1 ms
   d536e:	2001      	movs	r0, #1
   d5370:	f000 fea2 	bl	d60b8 <delay>
    digitalWrite(rstPin, LOW);  // Bring reset low
   d5374:	f994 0037 	ldrsb.w	r0, [r4, #55]	; 0x37
   d5378:	2100      	movs	r1, #0
   d537a:	b280      	uxth	r0, r0
   d537c:	f001 fa7d 	bl	d687a <digitalWrite>
    delay(10);                  // Wait 10 ms
   d5380:	200a      	movs	r0, #10
   d5382:	f000 fe99 	bl	d60b8 <delay>
    digitalWrite(rstPin, HIGH); // Bring out of reset
   d5386:	f994 0037 	ldrsb.w	r0, [r4, #55]	; 0x37
   d538a:	2101      	movs	r1, #1
   d538c:	b280      	uxth	r0, r0
   d538e:	f001 fa74 	bl	d687a <digitalWrite>
  TRANSACTION_START
   d5392:	6aa0      	ldr	r0, [r4, #40]	; 0x28
   d5394:	2800      	cmp	r0, #0
   d5396:	d074      	beq.n	d5482 <_ZN16Adafruit_SSD13065beginEhhbb+0x1ea>
   d5398:	6ca1      	ldr	r1, [r4, #72]	; 0x48
   d539a:	f001 f8ed 	bl	d6578 <_ZN7TwoWire8setSpeedEm>
  ssd1306_commandList(init1, sizeof(init1));
   d539e:	2204      	movs	r2, #4
   d53a0:	4957      	ldr	r1, [pc, #348]	; (d5500 <_ZN16Adafruit_SSD13065beginEhhbb+0x268>)
   d53a2:	4620      	mov	r0, r4
   d53a4:	f7ff ff0d 	bl	d51c2 <_ZN16Adafruit_SSD130619ssd1306_commandListEPKhh>
  ssd1306_command1(HEIGHT - 1);
   d53a8:	7aa1      	ldrb	r1, [r4, #10]
   d53aa:	3901      	subs	r1, #1
   d53ac:	b2c9      	uxtb	r1, r1
   d53ae:	4620      	mov	r0, r4
   d53b0:	f7ff fea0 	bl	d50f4 <_ZN16Adafruit_SSD130616ssd1306_command1Eh>
  ssd1306_commandList(init2, sizeof(init2));
   d53b4:	4953      	ldr	r1, [pc, #332]	; (d5504 <_ZN16Adafruit_SSD13065beginEhhbb+0x26c>)
   d53b6:	2204      	movs	r2, #4
   d53b8:	4620      	mov	r0, r4
   d53ba:	f7ff ff02 	bl	d51c2 <_ZN16Adafruit_SSD130619ssd1306_commandListEPKhh>
  ssd1306_command1((vccstate == SSD1306_EXTERNALVCC) ? 0x10 : 0x14);
   d53be:	f994 3031 	ldrsb.w	r3, [r4, #49]	; 0x31
   d53c2:	2b01      	cmp	r3, #1
   d53c4:	bf0c      	ite	eq
   d53c6:	2110      	moveq	r1, #16
   d53c8:	2114      	movne	r1, #20
   d53ca:	4620      	mov	r0, r4
   d53cc:	f7ff fe92 	bl	d50f4 <_ZN16Adafruit_SSD130616ssd1306_command1Eh>
  ssd1306_commandList(init3, sizeof(init3));
   d53d0:	2204      	movs	r2, #4
   d53d2:	494d      	ldr	r1, [pc, #308]	; (d5508 <_ZN16Adafruit_SSD13065beginEhhbb+0x270>)
   d53d4:	4620      	mov	r0, r4
   d53d6:	f7ff fef4 	bl	d51c2 <_ZN16Adafruit_SSD130619ssd1306_commandListEPKhh>
  if((WIDTH == 128) && (HEIGHT == 32)) {
   d53da:	68a3      	ldr	r3, [r4, #8]
   d53dc:	4a4b      	ldr	r2, [pc, #300]	; (d550c <_ZN16Adafruit_SSD13065beginEhhbb+0x274>)
   d53de:	4293      	cmp	r3, r2
   d53e0:	d15c      	bne.n	d549c <_ZN16Adafruit_SSD13065beginEhhbb+0x204>
    ssd1306_commandList(init4a, sizeof(init4a));
   d53e2:	494b      	ldr	r1, [pc, #300]	; (d5510 <_ZN16Adafruit_SSD13065beginEhhbb+0x278>)
   d53e4:	2204      	movs	r2, #4
   d53e6:	4620      	mov	r0, r4
   d53e8:	f7ff feeb 	bl	d51c2 <_ZN16Adafruit_SSD130619ssd1306_commandListEPKhh>
  ssd1306_command1(SSD1306_SETPRECHARGE); // 0xd9
   d53ec:	21d9      	movs	r1, #217	; 0xd9
   d53ee:	4620      	mov	r0, r4
   d53f0:	f7ff fe80 	bl	d50f4 <_ZN16Adafruit_SSD130616ssd1306_command1Eh>
  ssd1306_command1((vccstate == SSD1306_EXTERNALVCC) ? 0x22 : 0xF1);
   d53f4:	f994 3031 	ldrsb.w	r3, [r4, #49]	; 0x31
   d53f8:	2b01      	cmp	r3, #1
   d53fa:	bf0c      	ite	eq
   d53fc:	2122      	moveq	r1, #34	; 0x22
   d53fe:	21f1      	movne	r1, #241	; 0xf1
   d5400:	4620      	mov	r0, r4
   d5402:	f7ff fe77 	bl	d50f4 <_ZN16Adafruit_SSD130616ssd1306_command1Eh>
  ssd1306_commandList(init5, sizeof(init5));
   d5406:	4620      	mov	r0, r4
   d5408:	4942      	ldr	r1, [pc, #264]	; (d5514 <_ZN16Adafruit_SSD13065beginEhhbb+0x27c>)
   d540a:	2206      	movs	r2, #6
   d540c:	f7ff fed9 	bl	d51c2 <_ZN16Adafruit_SSD130619ssd1306_commandListEPKhh>
  TRANSACTION_END
   d5410:	6aa0      	ldr	r0, [r4, #40]	; 0x28
   d5412:	2800      	cmp	r0, #0
   d5414:	d063      	beq.n	d54de <_ZN16Adafruit_SSD13065beginEhhbb+0x246>
   d5416:	6ce1      	ldr	r1, [r4, #76]	; 0x4c
   d5418:	f001 f8ae 	bl	d6578 <_ZN7TwoWire8setSpeedEm>
  return true; // Success
   d541c:	2001      	movs	r0, #1
   d541e:	e76b      	b.n	d52f8 <_ZN16Adafruit_SSD13065beginEhhbb+0x60>
    i2caddr = addr ? addr : ((HEIGHT == 32) ? 0x3C : 0x3D);
   d5420:	b26d      	sxtb	r5, r5
   d5422:	e78e      	b.n	d5342 <_ZN16Adafruit_SSD13065beginEhhbb+0xaa>
    pinMode(dcPin, OUTPUT); // Set data/command pin as output
   d5424:	f994 0035 	ldrsb.w	r0, [r4, #53]	; 0x35
   d5428:	2101      	movs	r1, #1
   d542a:	b280      	uxth	r0, r0
   d542c:	f001 fa14 	bl	d6858 <pinMode>
    pinMode(csPin, OUTPUT); // Same for chip select
   d5430:	f994 0036 	ldrsb.w	r0, [r4, #54]	; 0x36
   d5434:	2101      	movs	r1, #1
   d5436:	b280      	uxth	r0, r0
   d5438:	f001 fa0e 	bl	d6858 <pinMode>
    SSD1306_DESELECT
   d543c:	f994 0036 	ldrsb.w	r0, [r4, #54]	; 0x36
   d5440:	2101      	movs	r1, #1
   d5442:	b280      	uxth	r0, r0
   d5444:	f001 fa19 	bl	d687a <digitalWrite>
    if(spi) { // Hardware SPI
   d5448:	6a65      	ldr	r5, [r4, #36]	; 0x24
   d544a:	b13d      	cbz	r5, d545c <_ZN16Adafruit_SSD13065beginEhhbb+0x1c4>
      if(periphBegin) spi->begin();
   d544c:	f1b8 0f00 	cmp.w	r8, #0
   d5450:	f43f af7e 	beq.w	d5350 <_ZN16Adafruit_SSD13065beginEhhbb+0xb8>
   d5454:	4628      	mov	r0, r5
   d5456:	f000 fca1 	bl	d5d9c <_ZN8SPIClass5beginEv>
   d545a:	e779      	b.n	d5350 <_ZN16Adafruit_SSD13065beginEhhbb+0xb8>
      pinMode(mosiPin, OUTPUT); // MOSI and SCLK outputs
   d545c:	f994 0033 	ldrsb.w	r0, [r4, #51]	; 0x33
   d5460:	2101      	movs	r1, #1
   d5462:	b280      	uxth	r0, r0
   d5464:	f001 f9f8 	bl	d6858 <pinMode>
      pinMode(clkPin , OUTPUT);
   d5468:	f994 0034 	ldrsb.w	r0, [r4, #52]	; 0x34
   d546c:	2101      	movs	r1, #1
   d546e:	b280      	uxth	r0, r0
   d5470:	f001 f9f2 	bl	d6858 <pinMode>
      digitalWrite(clkPin, LOW); // Clock low
   d5474:	f994 0034 	ldrsb.w	r0, [r4, #52]	; 0x34
   d5478:	4629      	mov	r1, r5
   d547a:	b280      	uxth	r0, r0
   d547c:	f001 f9fd 	bl	d687a <digitalWrite>
   d5480:	e766      	b.n	d5350 <_ZN16Adafruit_SSD13065beginEhhbb+0xb8>
  TRANSACTION_START
   d5482:	6a60      	ldr	r0, [r4, #36]	; 0x24
   d5484:	b118      	cbz	r0, d548e <_ZN16Adafruit_SSD13065beginEhhbb+0x1f6>
   d5486:	f104 0138 	add.w	r1, r4, #56	; 0x38
   d548a:	f000 fcb1 	bl	d5df0 <_ZN8SPIClass16beginTransactionERKN8particle11SPISettingsE>
   d548e:	f994 0036 	ldrsb.w	r0, [r4, #54]	; 0x36
   d5492:	2100      	movs	r1, #0
   d5494:	b280      	uxth	r0, r0
   d5496:	f001 f9f0 	bl	d687a <digitalWrite>
   d549a:	e780      	b.n	d539e <_ZN16Adafruit_SSD13065beginEhhbb+0x106>
  } else if((WIDTH == 128) && (HEIGHT == 64)) {
   d549c:	4a1e      	ldr	r2, [pc, #120]	; (d5518 <_ZN16Adafruit_SSD13065beginEhhbb+0x280>)
   d549e:	4293      	cmp	r3, r2
   d54a0:	d10e      	bne.n	d54c0 <_ZN16Adafruit_SSD13065beginEhhbb+0x228>
    ssd1306_commandList(init4b, sizeof(init4b));
   d54a2:	491e      	ldr	r1, [pc, #120]	; (d551c <_ZN16Adafruit_SSD13065beginEhhbb+0x284>)
   d54a4:	2203      	movs	r2, #3
   d54a6:	4620      	mov	r0, r4
   d54a8:	f7ff fe8b 	bl	d51c2 <_ZN16Adafruit_SSD130619ssd1306_commandListEPKhh>
    ssd1306_command1((vccstate == SSD1306_EXTERNALVCC) ? 0x9F : 0xCF);
   d54ac:	f994 3031 	ldrsb.w	r3, [r4, #49]	; 0x31
   d54b0:	2b01      	cmp	r3, #1
   d54b2:	bf0c      	ite	eq
   d54b4:	219f      	moveq	r1, #159	; 0x9f
   d54b6:	21cf      	movne	r1, #207	; 0xcf
    ssd1306_command1((vccstate == SSD1306_EXTERNALVCC) ? 0x10 : 0xAF);
   d54b8:	4620      	mov	r0, r4
   d54ba:	f7ff fe1b 	bl	d50f4 <_ZN16Adafruit_SSD130616ssd1306_command1Eh>
   d54be:	e795      	b.n	d53ec <_ZN16Adafruit_SSD13065beginEhhbb+0x154>
  } else if((WIDTH == 96) && (HEIGHT == 16)) {
   d54c0:	4a17      	ldr	r2, [pc, #92]	; (d5520 <_ZN16Adafruit_SSD13065beginEhhbb+0x288>)
   d54c2:	4293      	cmp	r3, r2
   d54c4:	d192      	bne.n	d53ec <_ZN16Adafruit_SSD13065beginEhhbb+0x154>
    ssd1306_commandList(init4c, sizeof(init4c));
   d54c6:	4917      	ldr	r1, [pc, #92]	; (d5524 <_ZN16Adafruit_SSD13065beginEhhbb+0x28c>)
   d54c8:	2203      	movs	r2, #3
   d54ca:	4620      	mov	r0, r4
   d54cc:	f7ff fe79 	bl	d51c2 <_ZN16Adafruit_SSD130619ssd1306_commandListEPKhh>
    ssd1306_command1((vccstate == SSD1306_EXTERNALVCC) ? 0x10 : 0xAF);
   d54d0:	f994 3031 	ldrsb.w	r3, [r4, #49]	; 0x31
   d54d4:	2b01      	cmp	r3, #1
   d54d6:	bf0c      	ite	eq
   d54d8:	2110      	moveq	r1, #16
   d54da:	21af      	movne	r1, #175	; 0xaf
   d54dc:	e7ec      	b.n	d54b8 <_ZN16Adafruit_SSD13065beginEhhbb+0x220>
  TRANSACTION_END
   d54de:	f994 0036 	ldrsb.w	r0, [r4, #54]	; 0x36
   d54e2:	2101      	movs	r1, #1
   d54e4:	b280      	uxth	r0, r0
   d54e6:	f001 f9c8 	bl	d687a <digitalWrite>
   d54ea:	6a60      	ldr	r0, [r4, #36]	; 0x24
   d54ec:	2800      	cmp	r0, #0
   d54ee:	d095      	beq.n	d541c <_ZN16Adafruit_SSD13065beginEhhbb+0x184>
   d54f0:	f000 fc65 	bl	d5dbe <_ZN8SPIClass14endTransactionEv>
   d54f4:	e792      	b.n	d541c <_ZN16Adafruit_SSD13065beginEhhbb+0x184>
   d54f6:	bf00      	nop
   d54f8:	000d7318 	.word	0x000d7318
   d54fc:	000d7058 	.word	0x000d7058
   d5500:	000d7560 	.word	0x000d7560
   d5504:	000d7564 	.word	0x000d7564
   d5508:	000d7568 	.word	0x000d7568
   d550c:	00200080 	.word	0x00200080
   d5510:	000d7572 	.word	0x000d7572
   d5514:	000d756c 	.word	0x000d756c
   d5518:	00400080 	.word	0x00400080
   d551c:	000d7576 	.word	0x000d7576
   d5520:	00100060 	.word	0x00100060
   d5524:	000d7579 	.word	0x000d7579

000d5528 <_ZN16Adafruit_SSD130621drawFastHLineInternalEssst>:
  int16_t x, int16_t y, int16_t w, uint16_t color) {
   d5528:	b570      	push	{r4, r5, r6, lr}
  if((y >= 0) && (y < HEIGHT)) { // Y coord in bounds?
   d552a:	2a00      	cmp	r2, #0
  int16_t x, int16_t y, int16_t w, uint16_t color) {
   d552c:	f8bd 5010 	ldrh.w	r5, [sp, #16]
  if((y >= 0) && (y < HEIGHT)) { // Y coord in bounds?
   d5530:	db3d      	blt.n	d55ae <_ZN16Adafruit_SSD130621drawFastHLineInternalEssst+0x86>
   d5532:	f9b0 400a 	ldrsh.w	r4, [r0, #10]
   d5536:	4294      	cmp	r4, r2
   d5538:	dd39      	ble.n	d55ae <_ZN16Adafruit_SSD130621drawFastHLineInternalEssst+0x86>
    if(x < 0) { // Clip left
   d553a:	2900      	cmp	r1, #0
      w += x;
   d553c:	bfbe      	ittt	lt
   d553e:	185b      	addlt	r3, r3, r1
   d5540:	b21b      	sxthlt	r3, r3
      x  = 0;
   d5542:	2100      	movlt	r1, #0
    if((x + w) > WIDTH) { // Clip right
   d5544:	f9b0 4008 	ldrsh.w	r4, [r0, #8]
   d5548:	18ce      	adds	r6, r1, r3
   d554a:	42a6      	cmp	r6, r4
      w = (WIDTH - x);
   d554c:	bfc4      	itt	gt
   d554e:	1a63      	subgt	r3, r4, r1
   d5550:	b21b      	sxthgt	r3, r3
    if(w > 0) { // Proceed only if width is positive
   d5552:	2b00      	cmp	r3, #0
   d5554:	dd2b      	ble.n	d55ae <_ZN16Adafruit_SSD130621drawFastHLineInternalEssst+0x86>
      uint8_t *pBuf = &buffer[(y / 8) * WIDTH + x],
   d5556:	6ac0      	ldr	r0, [r0, #44]	; 0x2c
   d5558:	10d6      	asrs	r6, r2, #3
   d555a:	fb14 1106 	smlabb	r1, r4, r6, r1
   d555e:	4401      	add	r1, r0
               mask = 1 << (y & 7);
   d5560:	f002 0007 	and.w	r0, r2, #7
   d5564:	2201      	movs	r2, #1
   d5566:	4082      	lsls	r2, r0
      switch(color) {
   d5568:	2d01      	cmp	r5, #1
               mask = 1 << (y & 7);
   d556a:	b2d2      	uxtb	r2, r2
      switch(color) {
   d556c:	d016      	beq.n	d559c <_ZN16Adafruit_SSD130621drawFastHLineInternalEssst+0x74>
   d556e:	2d02      	cmp	r5, #2
   d5570:	d00b      	beq.n	d558a <_ZN16Adafruit_SSD130621drawFastHLineInternalEssst+0x62>
   d5572:	b9e5      	cbnz	r5, d55ae <_ZN16Adafruit_SSD130621drawFastHLineInternalEssst+0x86>
       case BLACK: mask = ~mask; while(w--) { *pBuf++ &= mask; }; break;
   d5574:	43d2      	mvns	r2, r2
   d5576:	b2d2      	uxtb	r2, r2
   d5578:	440b      	add	r3, r1
   d557a:	4299      	cmp	r1, r3
   d557c:	d017      	beq.n	d55ae <_ZN16Adafruit_SSD130621drawFastHLineInternalEssst+0x86>
   d557e:	f811 0b01 	ldrb.w	r0, [r1], #1
   d5582:	4010      	ands	r0, r2
   d5584:	f801 0c01 	strb.w	r0, [r1, #-1]
   d5588:	e7f7      	b.n	d557a <_ZN16Adafruit_SSD130621drawFastHLineInternalEssst+0x52>
   d558a:	440b      	add	r3, r1
       case INVERSE:             while(w--) { *pBuf++ ^= mask; }; break;
   d558c:	4299      	cmp	r1, r3
   d558e:	d00e      	beq.n	d55ae <_ZN16Adafruit_SSD130621drawFastHLineInternalEssst+0x86>
   d5590:	f811 0b01 	ldrb.w	r0, [r1], #1
   d5594:	4050      	eors	r0, r2
   d5596:	f801 0c01 	strb.w	r0, [r1, #-1]
   d559a:	e7f7      	b.n	d558c <_ZN16Adafruit_SSD130621drawFastHLineInternalEssst+0x64>
   d559c:	440b      	add	r3, r1
       case WHITE:               while(w--) { *pBuf++ |= mask; }; break;
   d559e:	4299      	cmp	r1, r3
   d55a0:	d005      	beq.n	d55ae <_ZN16Adafruit_SSD130621drawFastHLineInternalEssst+0x86>
   d55a2:	f811 0b01 	ldrb.w	r0, [r1], #1
   d55a6:	4310      	orrs	r0, r2
   d55a8:	f801 0c01 	strb.w	r0, [r1, #-1]
   d55ac:	e7f7      	b.n	d559e <_ZN16Adafruit_SSD130621drawFastHLineInternalEssst+0x76>
}
   d55ae:	bd70      	pop	{r4, r5, r6, pc}

000d55b0 <_ZN16Adafruit_SSD130621drawFastVLineInternalEssst>:
  int16_t x, int16_t __y, int16_t __h, uint16_t color) {
   d55b0:	b5f0      	push	{r4, r5, r6, r7, lr}
  if((x >= 0) && (x < WIDTH)) { // X coord in bounds?
   d55b2:	2900      	cmp	r1, #0
  int16_t x, int16_t __y, int16_t __h, uint16_t color) {
   d55b4:	f8bd 6014 	ldrh.w	r6, [sp, #20]
  if((x >= 0) && (x < WIDTH)) { // X coord in bounds?
   d55b8:	db76      	blt.n	d56a8 <_ZN16Adafruit_SSD130621drawFastVLineInternalEssst+0xf8>
   d55ba:	f9b0 5008 	ldrsh.w	r5, [r0, #8]
   d55be:	42a9      	cmp	r1, r5
   d55c0:	da72      	bge.n	d56a8 <_ZN16Adafruit_SSD130621drawFastVLineInternalEssst+0xf8>
    if(__y < 0) { // Clip top
   d55c2:	2a00      	cmp	r2, #0
      __h += __y;
   d55c4:	bfbc      	itt	lt
   d55c6:	18d2      	addlt	r2, r2, r3
   d55c8:	b213      	sxthlt	r3, r2
    if((__y + __h) > HEIGHT) { // Clip bottom
   d55ca:	f9b0 400a 	ldrsh.w	r4, [r0, #10]
      __y = 0;
   d55ce:	bfb8      	it	lt
   d55d0:	2200      	movlt	r2, #0
    if((__y + __h) > HEIGHT) { // Clip bottom
   d55d2:	18d7      	adds	r7, r2, r3
   d55d4:	42a7      	cmp	r7, r4
      __h = (HEIGHT - __y);
   d55d6:	bfc4      	itt	gt
   d55d8:	1aa3      	subgt	r3, r4, r2
   d55da:	b21b      	sxthgt	r3, r3
    if(__h > 0) { // Proceed only if height is now positive
   d55dc:	2b00      	cmp	r3, #0
   d55de:	dd63      	ble.n	d56a8 <_ZN16Adafruit_SSD130621drawFastVLineInternalEssst+0xf8>
      uint8_t *pBuf = &buffer[(y / 8) * WIDTH + x];
   d55e0:	f3c2 04c4 	ubfx	r4, r2, #3, #5
   d55e4:	6ac7      	ldr	r7, [r0, #44]	; 0x2c
   d55e6:	fb15 1104 	smlabb	r1, r5, r4, r1
      if(mod) {
   d55ea:	f012 0207 	ands.w	r2, r2, #7
      uint8_t  y = __y, h = __h;
   d55ee:	b2db      	uxtb	r3, r3
      uint8_t *pBuf = &buffer[(y / 8) * WIDTH + x];
   d55f0:	eb07 0401 	add.w	r4, r7, r1
      if(mod) {
   d55f4:	d023      	beq.n	d563e <_ZN16Adafruit_SSD130621drawFastVLineInternalEssst+0x8e>
        mod = 8 - mod;
   d55f6:	f1c2 0208 	rsb	r2, r2, #8
   d55fa:	b2d2      	uxtb	r2, r2
        uint8_t mask = pgm_read_byte(&premask[mod]);
   d55fc:	4d2c      	ldr	r5, [pc, #176]	; (d56b0 <_ZN16Adafruit_SSD130621drawFastVLineInternalEssst+0x100>)
        if(h < mod) mask &= (0XFF >> (mod - h));
   d55fe:	4293      	cmp	r3, r2
   d5600:	bf3c      	itt	cc
   d5602:	f04f 0cff 	movcc.w	ip, #255	; 0xff
   d5606:	eba2 0e03 	subcc.w	lr, r2, r3
        uint8_t mask = pgm_read_byte(&premask[mod]);
   d560a:	5cad      	ldrb	r5, [r5, r2]
        if(h < mod) mask &= (0XFF >> (mod - h));
   d560c:	bf3c      	itt	cc
   d560e:	fa4c fc0e 	asrcc.w	ip, ip, lr
   d5612:	ea0c 0505 	andcc.w	r5, ip, r5
        switch(color) {
   d5616:	2e01      	cmp	r6, #1
   d5618:	d007      	beq.n	d562a <_ZN16Adafruit_SSD130621drawFastVLineInternalEssst+0x7a>
   d561a:	2e02      	cmp	r6, #2
   d561c:	d02e      	beq.n	d567c <_ZN16Adafruit_SSD130621drawFastVLineInternalEssst+0xcc>
   d561e:	b94e      	cbnz	r6, d5634 <_ZN16Adafruit_SSD130621drawFastVLineInternalEssst+0x84>
         case BLACK:   *pBuf &= ~mask; break;
   d5620:	f817 c001 	ldrb.w	ip, [r7, r1]
   d5624:	ea2c 0505 	bic.w	r5, ip, r5
   d5628:	e003      	b.n	d5632 <_ZN16Adafruit_SSD130621drawFastVLineInternalEssst+0x82>
         case WHITE:   *pBuf |=  mask; break;
   d562a:	f817 c001 	ldrb.w	ip, [r7, r1]
   d562e:	ea45 050c 	orr.w	r5, r5, ip
         case INVERSE: *pBuf ^=  mask; break;
   d5632:	547d      	strb	r5, [r7, r1]
      if(h >= mod) { // More to go?
   d5634:	4293      	cmp	r3, r2
   d5636:	d337      	bcc.n	d56a8 <_ZN16Adafruit_SSD130621drawFastVLineInternalEssst+0xf8>
        pBuf += WIDTH;
   d5638:	f9b0 1008 	ldrsh.w	r1, [r0, #8]
   d563c:	440c      	add	r4, r1
        h -= mod;
   d563e:	1a9a      	subs	r2, r3, r2
   d5640:	b2d2      	uxtb	r2, r2
        if(h >= 8) {
   d5642:	2a07      	cmp	r2, #7
   d5644:	d90e      	bls.n	d5664 <_ZN16Adafruit_SSD130621drawFastVLineInternalEssst+0xb4>
          if(color == INVERSE) {
   d5646:	2e02      	cmp	r6, #2
   d5648:	d11d      	bne.n	d5686 <_ZN16Adafruit_SSD130621drawFastVLineInternalEssst+0xd6>
   d564a:	4613      	mov	r3, r2
              *pBuf ^= 0xFF;  // Invert byte
   d564c:	7821      	ldrb	r1, [r4, #0]
   d564e:	43c9      	mvns	r1, r1
   d5650:	7021      	strb	r1, [r4, #0]
              h     -= 8;     // Subtract 8 rows from height
   d5652:	3b08      	subs	r3, #8
              pBuf  += WIDTH; // Advance pointer 8 rows
   d5654:	f9b0 1008 	ldrsh.w	r1, [r0, #8]
              h     -= 8;     // Subtract 8 rows from height
   d5658:	b2db      	uxtb	r3, r3
            } while(h >= 8);
   d565a:	2b07      	cmp	r3, #7
              pBuf  += WIDTH; // Advance pointer 8 rows
   d565c:	440c      	add	r4, r1
            } while(h >= 8);
   d565e:	d8f5      	bhi.n	d564c <_ZN16Adafruit_SSD130621drawFastVLineInternalEssst+0x9c>
   d5660:	f002 0207 	and.w	r2, r2, #7
        if(h) { // Do the final partial byte, if necessary
   d5664:	b302      	cbz	r2, d56a8 <_ZN16Adafruit_SSD130621drawFastVLineInternalEssst+0xf8>
          uint8_t mask = pgm_read_byte(&postmask[mod]);
   d5666:	4b13      	ldr	r3, [pc, #76]	; (d56b4 <_ZN16Adafruit_SSD130621drawFastVLineInternalEssst+0x104>)
          switch(color) {
   d5668:	2e01      	cmp	r6, #1
          uint8_t mask = pgm_read_byte(&postmask[mod]);
   d566a:	5c9b      	ldrb	r3, [r3, r2]
          switch(color) {
   d566c:	d019      	beq.n	d56a2 <_ZN16Adafruit_SSD130621drawFastVLineInternalEssst+0xf2>
   d566e:	2e02      	cmp	r6, #2
   d5670:	d01b      	beq.n	d56aa <_ZN16Adafruit_SSD130621drawFastVLineInternalEssst+0xfa>
   d5672:	b9ce      	cbnz	r6, d56a8 <_ZN16Adafruit_SSD130621drawFastVLineInternalEssst+0xf8>
           case BLACK:   *pBuf &= ~mask; break;
   d5674:	7822      	ldrb	r2, [r4, #0]
   d5676:	ea22 0303 	bic.w	r3, r2, r3
   d567a:	e014      	b.n	d56a6 <_ZN16Adafruit_SSD130621drawFastVLineInternalEssst+0xf6>
         case INVERSE: *pBuf ^=  mask; break;
   d567c:	f817 c001 	ldrb.w	ip, [r7, r1]
   d5680:	ea85 050c 	eor.w	r5, r5, ip
   d5684:	e7d5      	b.n	d5632 <_ZN16Adafruit_SSD130621drawFastVLineInternalEssst+0x82>
            uint8_t val = (color != BLACK) ? 255 : 0;
   d5686:	2e00      	cmp	r6, #0
   d5688:	bf14      	ite	ne
   d568a:	25ff      	movne	r5, #255	; 0xff
   d568c:	2500      	moveq	r5, #0
   d568e:	4613      	mov	r3, r2
              *pBuf = val;    // Set byte
   d5690:	7025      	strb	r5, [r4, #0]
              h    -= 8;      // Subtract 8 rows from height
   d5692:	3b08      	subs	r3, #8
              pBuf += WIDTH;  // Advance pointer 8 rows
   d5694:	f9b0 1008 	ldrsh.w	r1, [r0, #8]
              h    -= 8;      // Subtract 8 rows from height
   d5698:	b2db      	uxtb	r3, r3
            } while(h >= 8);
   d569a:	2b07      	cmp	r3, #7
              pBuf += WIDTH;  // Advance pointer 8 rows
   d569c:	440c      	add	r4, r1
            } while(h >= 8);
   d569e:	d8f7      	bhi.n	d5690 <_ZN16Adafruit_SSD130621drawFastVLineInternalEssst+0xe0>
   d56a0:	e7de      	b.n	d5660 <_ZN16Adafruit_SSD130621drawFastVLineInternalEssst+0xb0>
           case WHITE:   *pBuf |=  mask; break;
   d56a2:	7822      	ldrb	r2, [r4, #0]
   d56a4:	4313      	orrs	r3, r2
           case INVERSE: *pBuf ^=  mask; break;
   d56a6:	7023      	strb	r3, [r4, #0]
}
   d56a8:	bdf0      	pop	{r4, r5, r6, r7, pc}
           case INVERSE: *pBuf ^=  mask; break;
   d56aa:	7822      	ldrb	r2, [r4, #0]
   d56ac:	4053      	eors	r3, r2
   d56ae:	e7fa      	b.n	d56a6 <_ZN16Adafruit_SSD130621drawFastVLineInternalEssst+0xf6>
   d56b0:	000d7550 	.word	0x000d7550
   d56b4:	000d7558 	.word	0x000d7558

000d56b8 <_ZN16Adafruit_SSD130613drawFastHLineEssst>:
  int16_t x, int16_t y, int16_t w, uint16_t color) {
   d56b8:	b470      	push	{r4, r5, r6}
   d56ba:	4614      	mov	r4, r2
  switch(rotation) {
   d56bc:	7e82      	ldrb	r2, [r0, #26]
  int16_t x, int16_t y, int16_t w, uint16_t color) {
   d56be:	f8bd 600c 	ldrh.w	r6, [sp, #12]
  switch(rotation) {
   d56c2:	2a02      	cmp	r2, #2
   d56c4:	d00d      	beq.n	d56e2 <_ZN16Adafruit_SSD130613drawFastHLineEssst+0x2a>
   d56c6:	2a03      	cmp	r2, #3
   d56c8:	d018      	beq.n	d56fc <_ZN16Adafruit_SSD130613drawFastHLineEssst+0x44>
   d56ca:	2a01      	cmp	r2, #1
   d56cc:	d111      	bne.n	d56f2 <_ZN16Adafruit_SSD130613drawFastHLineEssst+0x3a>
    x = WIDTH - x - 1;
   d56ce:	8902      	ldrh	r2, [r0, #8]
   d56d0:	43e4      	mvns	r4, r4
   d56d2:	4414      	add	r4, r2
   d56d4:	b224      	sxth	r4, r4
  if(bSwap) drawFastVLineInternal(x, y, w, color);
   d56d6:	9603      	str	r6, [sp, #12]
   d56d8:	460a      	mov	r2, r1
   d56da:	4621      	mov	r1, r4
}
   d56dc:	bc70      	pop	{r4, r5, r6}
  if(bSwap) drawFastVLineInternal(x, y, w, color);
   d56de:	f7ff bf67 	b.w	d55b0 <_ZN16Adafruit_SSD130621drawFastVLineInternalEssst>
    y  = HEIGHT - y - 1;
   d56e2:	8942      	ldrh	r2, [r0, #10]
    x -= (w-1);
   d56e4:	8905      	ldrh	r5, [r0, #8]
    y  = HEIGHT - y - 1;
   d56e6:	43e4      	mvns	r4, r4
    x -= (w-1);
   d56e8:	4419      	add	r1, r3
    y  = HEIGHT - y - 1;
   d56ea:	4414      	add	r4, r2
    x -= (w-1);
   d56ec:	1a69      	subs	r1, r5, r1
    y  = HEIGHT - y - 1;
   d56ee:	b224      	sxth	r4, r4
    x -= (w-1);
   d56f0:	b209      	sxth	r1, r1
  else      drawFastHLineInternal(x, y, w, color);
   d56f2:	9603      	str	r6, [sp, #12]
   d56f4:	4622      	mov	r2, r4
}
   d56f6:	bc70      	pop	{r4, r5, r6}
  else      drawFastHLineInternal(x, y, w, color);
   d56f8:	f7ff bf16 	b.w	d5528 <_ZN16Adafruit_SSD130621drawFastHLineInternalEssst>
    y -= (w-1);
   d56fc:	8945      	ldrh	r5, [r0, #10]
   d56fe:	4419      	add	r1, r3
   d5700:	1a69      	subs	r1, r5, r1
   d5702:	b209      	sxth	r1, r1
    break;
   d5704:	e7e7      	b.n	d56d6 <_ZN16Adafruit_SSD130613drawFastHLineEssst+0x1e>

000d5706 <_ZN16Adafruit_SSD130613drawFastVLineEssst>:
  int16_t x, int16_t y, int16_t h, uint16_t color) {
   d5706:	b430      	push	{r4, r5}
   d5708:	4614      	mov	r4, r2
  switch(rotation) {
   d570a:	7e82      	ldrb	r2, [r0, #26]
  int16_t x, int16_t y, int16_t h, uint16_t color) {
   d570c:	f8bd 5008 	ldrh.w	r5, [sp, #8]
  switch(rotation) {
   d5710:	2a02      	cmp	r2, #2
   d5712:	d00d      	beq.n	d5730 <_ZN16Adafruit_SSD130613drawFastVLineEssst+0x2a>
   d5714:	2a03      	cmp	r2, #3
   d5716:	d018      	beq.n	d574a <_ZN16Adafruit_SSD130613drawFastVLineEssst+0x44>
   d5718:	2a01      	cmp	r2, #1
   d571a:	d111      	bne.n	d5740 <_ZN16Adafruit_SSD130613drawFastVLineEssst+0x3a>
    x -= (h-1);
   d571c:	18e2      	adds	r2, r4, r3
   d571e:	8904      	ldrh	r4, [r0, #8]
   d5720:	1aa4      	subs	r4, r4, r2
   d5722:	b224      	sxth	r4, r4
  if(bSwap) drawFastHLineInternal(x, y, h, color);
   d5724:	9502      	str	r5, [sp, #8]
   d5726:	460a      	mov	r2, r1
   d5728:	4621      	mov	r1, r4
}
   d572a:	bc30      	pop	{r4, r5}
  if(bSwap) drawFastHLineInternal(x, y, h, color);
   d572c:	f7ff befc 	b.w	d5528 <_ZN16Adafruit_SSD130621drawFastHLineInternalEssst>
    x = WIDTH  - x - 1;
   d5730:	8902      	ldrh	r2, [r0, #8]
   d5732:	43c9      	mvns	r1, r1
   d5734:	4411      	add	r1, r2
    y -= (h-1);
   d5736:	18e2      	adds	r2, r4, r3
   d5738:	8944      	ldrh	r4, [r0, #10]
   d573a:	1aa4      	subs	r4, r4, r2
    x = WIDTH  - x - 1;
   d573c:	b209      	sxth	r1, r1
    y -= (h-1);
   d573e:	b224      	sxth	r4, r4
  else      drawFastVLineInternal(x, y, h, color);
   d5740:	9502      	str	r5, [sp, #8]
   d5742:	4622      	mov	r2, r4
}
   d5744:	bc30      	pop	{r4, r5}
  else      drawFastVLineInternal(x, y, h, color);
   d5746:	f7ff bf33 	b.w	d55b0 <_ZN16Adafruit_SSD130621drawFastVLineInternalEssst>
    y = HEIGHT - y - 1;
   d574a:	8942      	ldrh	r2, [r0, #10]
   d574c:	43c9      	mvns	r1, r1
   d574e:	4411      	add	r1, r2
   d5750:	b209      	sxth	r1, r1
    break;
   d5752:	e7e7      	b.n	d5724 <_ZN16Adafruit_SSD130613drawFastVLineEssst+0x1e>

000d5754 <_ZN16Adafruit_SSD13067displayEv>:
void Adafruit_SSD1306::display(void) {
   d5754:	e92d 43f8 	stmdb	sp!, {r3, r4, r5, r6, r7, r8, r9, lr}
   d5758:	4604      	mov	r4, r0
  TRANSACTION_START
   d575a:	6a80      	ldr	r0, [r0, #40]	; 0x28
   d575c:	2800      	cmp	r0, #0
   d575e:	d042      	beq.n	d57e6 <_ZN16Adafruit_SSD13067displayEv+0x92>
   d5760:	6ca1      	ldr	r1, [r4, #72]	; 0x48
   d5762:	f000 ff09 	bl	d6578 <_ZN7TwoWire8setSpeedEm>
  ssd1306_commandList(dlist1, sizeof(dlist1));
   d5766:	4947      	ldr	r1, [pc, #284]	; (d5884 <_ZN16Adafruit_SSD13067displayEv+0x130>)
   d5768:	2205      	movs	r2, #5
   d576a:	4620      	mov	r0, r4
   d576c:	f7ff fd29 	bl	d51c2 <_ZN16Adafruit_SSD130619ssd1306_commandListEPKhh>
  ssd1306_command1(WIDTH - 1); // Column end address
   d5770:	7a21      	ldrb	r1, [r4, #8]
   d5772:	3901      	subs	r1, #1
   d5774:	4620      	mov	r0, r4
   d5776:	b2c9      	uxtb	r1, r1
   d5778:	f7ff fcbc 	bl	d50f4 <_ZN16Adafruit_SSD130616ssd1306_command1Eh>
  uint16_t count = WIDTH * ((HEIGHT + 7) / 8);
   d577c:	f9b4 300a 	ldrsh.w	r3, [r4, #10]
   d5780:	1dde      	adds	r6, r3, #7
   d5782:	bf48      	it	mi
   d5784:	f103 060e 	addmi.w	r6, r3, #14
  if(wire) { // I2C
   d5788:	e9d4 050a 	ldrd	r0, r5, [r4, #40]	; 0x28
  uint16_t count = WIDTH * ((HEIGHT + 7) / 8);
   d578c:	8923      	ldrh	r3, [r4, #8]
   d578e:	10f6      	asrs	r6, r6, #3
   d5790:	fb13 f606 	smulbb	r6, r3, r6
  uint8_t *ptr   = buffer;
   d5794:	fa15 f686 	uxtah	r6, r5, r6
  if(wire) { // I2C
   d5798:	2800      	cmp	r0, #0
   d579a:	d03a      	beq.n	d5812 <_ZN16Adafruit_SSD13067displayEv+0xbe>
    wire->beginTransmission(i2caddr);
   d579c:	f994 1030 	ldrsb.w	r1, [r4, #48]	; 0x30
   d57a0:	f000 ff24 	bl	d65ec <_ZN7TwoWire17beginTransmissionEi>
    WIRE_WRITE((uint8_t)0x40);
   d57a4:	6aa0      	ldr	r0, [r4, #40]	; 0x28
   d57a6:	6803      	ldr	r3, [r0, #0]
   d57a8:	2140      	movs	r1, #64	; 0x40
   d57aa:	689b      	ldr	r3, [r3, #8]
   d57ac:	4798      	blx	r3
    uint8_t bytesOut = 1;
   d57ae:	2701      	movs	r7, #1
    while(count--) {
   d57b0:	42b5      	cmp	r5, r6
   d57b2:	6aa0      	ldr	r0, [r4, #40]	; 0x28
   d57b4:	d024      	beq.n	d5800 <_ZN16Adafruit_SSD13067displayEv+0xac>
      if(bytesOut >= WIRE_MAX) {
   d57b6:	2f1f      	cmp	r7, #31
   d57b8:	d90c      	bls.n	d57d4 <_ZN16Adafruit_SSD13067displayEv+0x80>
        wire->endTransmission();
   d57ba:	f000 ff1e 	bl	d65fa <_ZN7TwoWire15endTransmissionEv>
        wire->beginTransmission(i2caddr);
   d57be:	f994 1030 	ldrsb.w	r1, [r4, #48]	; 0x30
   d57c2:	6aa0      	ldr	r0, [r4, #40]	; 0x28
   d57c4:	f000 ff12 	bl	d65ec <_ZN7TwoWire17beginTransmissionEi>
        WIRE_WRITE((uint8_t)0x40);
   d57c8:	6aa0      	ldr	r0, [r4, #40]	; 0x28
   d57ca:	6803      	ldr	r3, [r0, #0]
   d57cc:	2140      	movs	r1, #64	; 0x40
   d57ce:	689b      	ldr	r3, [r3, #8]
   d57d0:	4798      	blx	r3
        bytesOut = 1;
   d57d2:	2701      	movs	r7, #1
      WIRE_WRITE(*ptr++);
   d57d4:	6aa0      	ldr	r0, [r4, #40]	; 0x28
   d57d6:	f815 1b01 	ldrb.w	r1, [r5], #1
   d57da:	6803      	ldr	r3, [r0, #0]
      bytesOut++;
   d57dc:	3701      	adds	r7, #1
      WIRE_WRITE(*ptr++);
   d57de:	689b      	ldr	r3, [r3, #8]
   d57e0:	4798      	blx	r3
      bytesOut++;
   d57e2:	b2ff      	uxtb	r7, r7
    while(count--) {
   d57e4:	e7e4      	b.n	d57b0 <_ZN16Adafruit_SSD13067displayEv+0x5c>
  TRANSACTION_START
   d57e6:	6a60      	ldr	r0, [r4, #36]	; 0x24
   d57e8:	b118      	cbz	r0, d57f2 <_ZN16Adafruit_SSD13067displayEv+0x9e>
   d57ea:	f104 0138 	add.w	r1, r4, #56	; 0x38
   d57ee:	f000 faff 	bl	d5df0 <_ZN8SPIClass16beginTransactionERKN8particle11SPISettingsE>
   d57f2:	f994 0036 	ldrsb.w	r0, [r4, #54]	; 0x36
   d57f6:	2100      	movs	r1, #0
   d57f8:	b280      	uxth	r0, r0
   d57fa:	f001 f83e 	bl	d687a <digitalWrite>
   d57fe:	e7b2      	b.n	d5766 <_ZN16Adafruit_SSD13067displayEv+0x12>
    wire->endTransmission();
   d5800:	f000 fefb 	bl	d65fa <_ZN7TwoWire15endTransmissionEv>
  TRANSACTION_END
   d5804:	6aa0      	ldr	r0, [r4, #40]	; 0x28
   d5806:	b378      	cbz	r0, d5868 <_ZN16Adafruit_SSD13067displayEv+0x114>
   d5808:	6ce1      	ldr	r1, [r4, #76]	; 0x4c
}
   d580a:	e8bd 43f8 	ldmia.w	sp!, {r3, r4, r5, r6, r7, r8, r9, lr}
   d580e:	f000 beb3 	b.w	d6578 <_ZN7TwoWire8setSpeedEm>
    SSD1306_MODE_DATA
   d5812:	f994 0035 	ldrsb.w	r0, [r4, #53]	; 0x35
   d5816:	2101      	movs	r1, #1
   d5818:	b280      	uxth	r0, r0
   d581a:	f001 f82e 	bl	d687a <digitalWrite>
    while(count--) SPIwrite(*ptr++);
   d581e:	42b5      	cmp	r5, r6
   d5820:	d0f0      	beq.n	d5804 <_ZN16Adafruit_SSD13067displayEv+0xb0>
  if(spi) {
   d5822:	6a60      	ldr	r0, [r4, #36]	; 0x24
    while(count--) SPIwrite(*ptr++);
   d5824:	f815 9b01 	ldrb.w	r9, [r5], #1
  if(spi) {
   d5828:	b118      	cbz	r0, d5832 <_ZN16Adafruit_SSD13067displayEv+0xde>
    (void)spi->transfer(d);
   d582a:	4649      	mov	r1, r9
   d582c:	f000 fb4e 	bl	d5ecc <_ZN8SPIClass8transferEh>
   d5830:	e7f5      	b.n	d581e <_ZN16Adafruit_SSD13067displayEv+0xca>
   d5832:	2708      	movs	r7, #8
    for(uint8_t bit = 0x80; bit; bit >>= 1) {
   d5834:	f04f 0880 	mov.w	r8, #128	; 0x80
      digitalWrite(mosiPin, d & bit);
   d5838:	f994 0033 	ldrsb.w	r0, [r4, #51]	; 0x33
   d583c:	ea09 0108 	and.w	r1, r9, r8
   d5840:	b280      	uxth	r0, r0
   d5842:	f001 f81a 	bl	d687a <digitalWrite>
      digitalWrite(clkPin , HIGH);
   d5846:	f994 0034 	ldrsb.w	r0, [r4, #52]	; 0x34
   d584a:	2101      	movs	r1, #1
   d584c:	b280      	uxth	r0, r0
   d584e:	f001 f814 	bl	d687a <digitalWrite>
      digitalWrite(clkPin , LOW);
   d5852:	f994 0034 	ldrsb.w	r0, [r4, #52]	; 0x34
   d5856:	2100      	movs	r1, #0
   d5858:	b280      	uxth	r0, r0
   d585a:	f001 f80e 	bl	d687a <digitalWrite>
    for(uint8_t bit = 0x80; bit; bit >>= 1) {
   d585e:	3f01      	subs	r7, #1
   d5860:	ea4f 0858 	mov.w	r8, r8, lsr #1
   d5864:	d1e8      	bne.n	d5838 <_ZN16Adafruit_SSD13067displayEv+0xe4>
   d5866:	e7da      	b.n	d581e <_ZN16Adafruit_SSD13067displayEv+0xca>
  TRANSACTION_END
   d5868:	f994 0036 	ldrsb.w	r0, [r4, #54]	; 0x36
   d586c:	2101      	movs	r1, #1
   d586e:	b280      	uxth	r0, r0
   d5870:	f001 f803 	bl	d687a <digitalWrite>
   d5874:	6a60      	ldr	r0, [r4, #36]	; 0x24
   d5876:	b118      	cbz	r0, d5880 <_ZN16Adafruit_SSD13067displayEv+0x12c>
}
   d5878:	e8bd 43f8 	ldmia.w	sp!, {r3, r4, r5, r6, r7, r8, r9, lr}
  TRANSACTION_END
   d587c:	f000 ba9f 	b.w	d5dbe <_ZN8SPIClass14endTransactionEv>
}
   d5880:	e8bd 83f8 	ldmia.w	sp!, {r3, r4, r5, r6, r7, r8, r9, pc}
   d5884:	000d757c 	.word	0x000d757c

000d5888 <netdb_freeaddrinfo>:

DYNALIB_BEGIN(hal_netdb)

DYNALIB_FN(0, hal_netdb, netdb_gethostbyname, struct hostent*(const char*))
DYNALIB_FN(1, hal_netdb, netdb_gethostbyname_r, int(const char*, struct hostent*, char*, size_t, struct hostent**, int*))
DYNALIB_FN(2, hal_netdb, netdb_freeaddrinfo, void(struct addrinfo*))
   d5888:	b508      	push	{r3, lr}
   d588a:	4b02      	ldr	r3, [pc, #8]	; (d5894 <netdb_freeaddrinfo+0xc>)
   d588c:	681b      	ldr	r3, [r3, #0]
   d588e:	689b      	ldr	r3, [r3, #8]
   d5890:	9301      	str	r3, [sp, #4]
   d5892:	bd08      	pop	{r3, pc}
   d5894:	00030268 	.word	0x00030268

000d5898 <netdb_getaddrinfo>:
DYNALIB_FN(3, hal_netdb, netdb_getaddrinfo, int(const char*, const char*, const struct addrinfo*, struct addrinfo**))
   d5898:	b508      	push	{r3, lr}
   d589a:	4b02      	ldr	r3, [pc, #8]	; (d58a4 <netdb_getaddrinfo+0xc>)
   d589c:	681b      	ldr	r3, [r3, #0]
   d589e:	68db      	ldr	r3, [r3, #12]
   d58a0:	9301      	str	r3, [sp, #4]
   d58a2:	bd08      	pop	{r3, pc}
   d58a4:	00030268 	.word	0x00030268

000d58a8 <HAL_Pin_Mode>:

DYNALIB_BEGIN(hal_gpio)

DYNALIB_FN(0, hal_gpio, HAL_Pin_Map, Hal_Pin_Info*(void))
DYNALIB_FN(1, hal_gpio, HAL_Validate_Pin_Function, PinFunction(pin_t, PinFunction))
DYNALIB_FN(2, hal_gpio, HAL_Pin_Mode, void(pin_t, PinMode))
   d58a8:	b508      	push	{r3, lr}
   d58aa:	4b02      	ldr	r3, [pc, #8]	; (d58b4 <HAL_Pin_Mode+0xc>)
   d58ac:	681b      	ldr	r3, [r3, #0]
   d58ae:	689b      	ldr	r3, [r3, #8]
   d58b0:	9301      	str	r3, [sp, #4]
   d58b2:	bd08      	pop	{r3, pc}
   d58b4:	0003022c 	.word	0x0003022c

000d58b8 <HAL_Get_Pin_Mode>:
DYNALIB_FN(3, hal_gpio, HAL_Get_Pin_Mode, PinMode(pin_t))
   d58b8:	b508      	push	{r3, lr}
   d58ba:	4b02      	ldr	r3, [pc, #8]	; (d58c4 <HAL_Get_Pin_Mode+0xc>)
   d58bc:	681b      	ldr	r3, [r3, #0]
   d58be:	68db      	ldr	r3, [r3, #12]
   d58c0:	9301      	str	r3, [sp, #4]
   d58c2:	bd08      	pop	{r3, pc}
   d58c4:	0003022c 	.word	0x0003022c

000d58c8 <HAL_GPIO_Write>:
DYNALIB_FN(4, hal_gpio, HAL_GPIO_Write, void(pin_t, uint8_t))
   d58c8:	b508      	push	{r3, lr}
   d58ca:	4b02      	ldr	r3, [pc, #8]	; (d58d4 <HAL_GPIO_Write+0xc>)
   d58cc:	681b      	ldr	r3, [r3, #0]
   d58ce:	691b      	ldr	r3, [r3, #16]
   d58d0:	9301      	str	r3, [sp, #4]
   d58d2:	bd08      	pop	{r3, pc}
   d58d4:	0003022c 	.word	0x0003022c

000d58d8 <HAL_GPIO_Read>:
DYNALIB_FN(5, hal_gpio, HAL_GPIO_Read, int32_t(pin_t))
   d58d8:	b508      	push	{r3, lr}
   d58da:	4b02      	ldr	r3, [pc, #8]	; (d58e4 <HAL_GPIO_Read+0xc>)
   d58dc:	681b      	ldr	r3, [r3, #0]
   d58de:	695b      	ldr	r3, [r3, #20]
   d58e0:	9301      	str	r3, [sp, #4]
   d58e2:	bd08      	pop	{r3, pc}
   d58e4:	0003022c 	.word	0x0003022c

000d58e8 <HAL_RNG_GetRandomNumber>:

DYNALIB_BEGIN(hal)

#if PLATFORM_ID > 3
DYNALIB_FN(0, hal, HAL_RNG_Configuration, void(void))
DYNALIB_FN(1, hal, HAL_RNG_GetRandomNumber, uint32_t(void))
   d58e8:	b508      	push	{r3, lr}
   d58ea:	4b02      	ldr	r3, [pc, #8]	; (d58f4 <HAL_RNG_GetRandomNumber+0xc>)
   d58ec:	681b      	ldr	r3, [r3, #0]
   d58ee:	685b      	ldr	r3, [r3, #4]
   d58f0:	9301      	str	r3, [sp, #4]
   d58f2:	bd08      	pop	{r3, pc}
   d58f4:	00030218 	.word	0x00030218

000d58f8 <HAL_Delay_Microseconds>:
#else
#define BASE_IDX 0
#endif

DYNALIB_FN(BASE_IDX + 0, hal, HAL_Delay_Milliseconds, void(uint32_t))
DYNALIB_FN(BASE_IDX + 1, hal, HAL_Delay_Microseconds, void(uint32_t))
   d58f8:	b508      	push	{r3, lr}
   d58fa:	4b02      	ldr	r3, [pc, #8]	; (d5904 <HAL_Delay_Microseconds+0xc>)
   d58fc:	681b      	ldr	r3, [r3, #0]
   d58fe:	68db      	ldr	r3, [r3, #12]
   d5900:	9301      	str	r3, [sp, #4]
   d5902:	bd08      	pop	{r3, pc}
   d5904:	00030218 	.word	0x00030218

000d5908 <HAL_Timer_Get_Milli_Seconds>:
DYNALIB_FN(BASE_IDX + 2, hal, HAL_Timer_Get_Micro_Seconds, system_tick_t(void))
DYNALIB_FN(BASE_IDX + 3, hal, HAL_Timer_Get_Milli_Seconds, system_tick_t(void))
   d5908:	b508      	push	{r3, lr}
   d590a:	4b02      	ldr	r3, [pc, #8]	; (d5914 <HAL_Timer_Get_Milli_Seconds+0xc>)
   d590c:	681b      	ldr	r3, [r3, #0]
   d590e:	695b      	ldr	r3, [r3, #20]
   d5910:	9301      	str	r3, [sp, #4]
   d5912:	bd08      	pop	{r3, pc}
   d5914:	00030218 	.word	0x00030218

000d5918 <os_mutex_create>:
DYNALIB_FN(8, hal_concurrent, os_timer_create, int(os_timer_t*, unsigned, void(*)(os_timer_t), void*, bool, void*))
DYNALIB_FN(9, hal_concurrent, os_timer_destroy, int(os_timer_t, void*))
DYNALIB_FN(10, hal_concurrent, os_timer_get_id, int(os_timer_t, void**))
DYNALIB_FN(11, hal_concurrent, os_timer_change, int(os_timer_t, os_timer_change_t, bool, unsigned, unsigned, void*))

DYNALIB_FN(12, hal_concurrent, os_mutex_create, int(os_mutex_t*))
   d5918:	b508      	push	{r3, lr}
   d591a:	4b02      	ldr	r3, [pc, #8]	; (d5924 <os_mutex_create+0xc>)
   d591c:	681b      	ldr	r3, [r3, #0]
   d591e:	6b1b      	ldr	r3, [r3, #48]	; 0x30
   d5920:	9301      	str	r3, [sp, #4]
   d5922:	bd08      	pop	{r3, pc}
   d5924:	00030248 	.word	0x00030248

000d5928 <os_mutex_destroy>:
DYNALIB_FN(13, hal_concurrent, os_mutex_destroy, int(os_mutex_t))
   d5928:	b508      	push	{r3, lr}
   d592a:	4b02      	ldr	r3, [pc, #8]	; (d5934 <os_mutex_destroy+0xc>)
   d592c:	681b      	ldr	r3, [r3, #0]
   d592e:	6b5b      	ldr	r3, [r3, #52]	; 0x34
   d5930:	9301      	str	r3, [sp, #4]
   d5932:	bd08      	pop	{r3, pc}
   d5934:	00030248 	.word	0x00030248

000d5938 <os_mutex_recursive_create>:
DYNALIB_FN(14, hal_concurrent, os_mutex_lock, int(os_mutex_t))
DYNALIB_FN(15, hal_concurrent, os_mutex_trylock, int(os_mutex_t))
DYNALIB_FN(16, hal_concurrent, os_mutex_unlock, int(os_mutex_t))

DYNALIB_FN(17, hal_concurrent, os_mutex_recursive_create, int(os_mutex_recursive_t*))
   d5938:	b508      	push	{r3, lr}
   d593a:	4b02      	ldr	r3, [pc, #8]	; (d5944 <os_mutex_recursive_create+0xc>)
   d593c:	681b      	ldr	r3, [r3, #0]
   d593e:	6c5b      	ldr	r3, [r3, #68]	; 0x44
   d5940:	9301      	str	r3, [sp, #4]
   d5942:	bd08      	pop	{r3, pc}
   d5944:	00030248 	.word	0x00030248

000d5948 <os_mutex_recursive_destroy>:
DYNALIB_FN(18, hal_concurrent, os_mutex_recursive_destroy, int(os_mutex_recursive_t))
   d5948:	b508      	push	{r3, lr}
   d594a:	4b02      	ldr	r3, [pc, #8]	; (d5954 <os_mutex_recursive_destroy+0xc>)
   d594c:	681b      	ldr	r3, [r3, #0]
   d594e:	6c9b      	ldr	r3, [r3, #72]	; 0x48
   d5950:	9301      	str	r3, [sp, #4]
   d5952:	bd08      	pop	{r3, pc}
   d5954:	00030248 	.word	0x00030248

000d5958 <inet_inet_ntop>:
DYNALIB_FN(0, hal_inet, inet_inet_addr, in_addr_t(const char*))
DYNALIB_FN(1, hal_inet, inet_inet_aton, int(const char*, struct in_addr*))
DYNALIB_FN(2, hal_inet, inet_inet_network, in_addr_t(const char*))
DYNALIB_FN(3, hal_inet, inet_inet_ntoa, char*(struct in_addr))
DYNALIB_FN(4, hal_inet, inet_inet_ntoa_r, char*(struct in_addr, char*, socklen_t))
DYNALIB_FN(5, hal_inet, inet_inet_ntop, const char*(int, const void*, char*, socklen_t))
   d5958:	b508      	push	{r3, lr}
   d595a:	4b02      	ldr	r3, [pc, #8]	; (d5964 <inet_inet_ntop+0xc>)
   d595c:	681b      	ldr	r3, [r3, #0]
   d595e:	695b      	ldr	r3, [r3, #20]
   d5960:	9301      	str	r3, [sp, #4]
   d5962:	bd08      	pop	{r3, pc}
   d5964:	00030264 	.word	0x00030264

000d5968 <hal_usart_init>:
#define BASE_IDX 6 // Base index for all subsequent functions
#else
#define BASE_IDX 0
#endif

DYNALIB_FN(BASE_IDX + 0, hal_usart, hal_usart_init, void(hal_usart_interface_t, hal_usart_ring_buffer_t*, hal_usart_ring_buffer_t*))
   d5968:	b508      	push	{r3, lr}
   d596a:	4b02      	ldr	r3, [pc, #8]	; (d5974 <hal_usart_init+0xc>)
   d596c:	681b      	ldr	r3, [r3, #0]
   d596e:	681b      	ldr	r3, [r3, #0]
   d5970:	9301      	str	r3, [sp, #4]
   d5972:	bd08      	pop	{r3, pc}
   d5974:	0003023c 	.word	0x0003023c

000d5978 <hal_usart_write>:
DYNALIB_FN(BASE_IDX + 1, hal_usart, hal_usart_begin, void(hal_usart_interface_t, uint32_t))
DYNALIB_FN(BASE_IDX + 2, hal_usart, hal_usart_end, void(hal_usart_interface_t))
DYNALIB_FN(BASE_IDX + 3, hal_usart, hal_usart_write, uint32_t(hal_usart_interface_t, uint8_t))
   d5978:	b508      	push	{r3, lr}
   d597a:	4b02      	ldr	r3, [pc, #8]	; (d5984 <hal_usart_write+0xc>)
   d597c:	681b      	ldr	r3, [r3, #0]
   d597e:	68db      	ldr	r3, [r3, #12]
   d5980:	9301      	str	r3, [sp, #4]
   d5982:	bd08      	pop	{r3, pc}
   d5984:	0003023c 	.word	0x0003023c

000d5988 <hal_usart_available>:
DYNALIB_FN(BASE_IDX + 4, hal_usart, hal_usart_available, int32_t(hal_usart_interface_t))
   d5988:	b508      	push	{r3, lr}
   d598a:	4b02      	ldr	r3, [pc, #8]	; (d5994 <hal_usart_available+0xc>)
   d598c:	681b      	ldr	r3, [r3, #0]
   d598e:	691b      	ldr	r3, [r3, #16]
   d5990:	9301      	str	r3, [sp, #4]
   d5992:	bd08      	pop	{r3, pc}
   d5994:	0003023c 	.word	0x0003023c

000d5998 <hal_usart_read>:
DYNALIB_FN(BASE_IDX + 5, hal_usart, hal_usart_read, int32_t(hal_usart_interface_t))
   d5998:	b508      	push	{r3, lr}
   d599a:	4b02      	ldr	r3, [pc, #8]	; (d59a4 <hal_usart_read+0xc>)
   d599c:	681b      	ldr	r3, [r3, #0]
   d599e:	695b      	ldr	r3, [r3, #20]
   d59a0:	9301      	str	r3, [sp, #4]
   d59a2:	bd08      	pop	{r3, pc}
   d59a4:	0003023c 	.word	0x0003023c

000d59a8 <hal_usart_peek>:
DYNALIB_FN(BASE_IDX + 6, hal_usart, hal_usart_peek, int32_t(hal_usart_interface_t))
   d59a8:	b508      	push	{r3, lr}
   d59aa:	4b02      	ldr	r3, [pc, #8]	; (d59b4 <hal_usart_peek+0xc>)
   d59ac:	681b      	ldr	r3, [r3, #0]
   d59ae:	699b      	ldr	r3, [r3, #24]
   d59b0:	9301      	str	r3, [sp, #4]
   d59b2:	bd08      	pop	{r3, pc}
   d59b4:	0003023c 	.word	0x0003023c

000d59b8 <hal_usart_flush>:
DYNALIB_FN(BASE_IDX + 7, hal_usart, hal_usart_flush, void(hal_usart_interface_t))
   d59b8:	b508      	push	{r3, lr}
   d59ba:	4b02      	ldr	r3, [pc, #8]	; (d59c4 <hal_usart_flush+0xc>)
   d59bc:	681b      	ldr	r3, [r3, #0]
   d59be:	69db      	ldr	r3, [r3, #28]
   d59c0:	9301      	str	r3, [sp, #4]
   d59c2:	bd08      	pop	{r3, pc}
   d59c4:	0003023c 	.word	0x0003023c

000d59c8 <hal_usart_is_enabled>:
DYNALIB_FN(BASE_IDX + 8, hal_usart, hal_usart_is_enabled, bool(hal_usart_interface_t))
   d59c8:	b508      	push	{r3, lr}
   d59ca:	4b02      	ldr	r3, [pc, #8]	; (d59d4 <hal_usart_is_enabled+0xc>)
   d59cc:	681b      	ldr	r3, [r3, #0]
   d59ce:	6a1b      	ldr	r3, [r3, #32]
   d59d0:	9301      	str	r3, [sp, #4]
   d59d2:	bd08      	pop	{r3, pc}
   d59d4:	0003023c 	.word	0x0003023c

000d59d8 <hal_usart_available_data_for_write>:
DYNALIB_FN(BASE_IDX + 9, hal_usart, hal_usart_half_duplex, void(hal_usart_interface_t, bool))
DYNALIB_FN(BASE_IDX + 10, hal_usart, hal_usart_available_data_for_write, int32_t(hal_usart_interface_t))
   d59d8:	b508      	push	{r3, lr}
   d59da:	4b02      	ldr	r3, [pc, #8]	; (d59e4 <hal_usart_available_data_for_write+0xc>)
   d59dc:	681b      	ldr	r3, [r3, #0]
   d59de:	6a9b      	ldr	r3, [r3, #40]	; 0x28
   d59e0:	9301      	str	r3, [sp, #4]
   d59e2:	bd08      	pop	{r3, pc}
   d59e4:	0003023c 	.word	0x0003023c

000d59e8 <hal_i2c_set_speed>:
#define BASE_IDX 16 // Base index for all subsequent functions
#else
#define BASE_IDX 0
#endif

DYNALIB_FN(BASE_IDX + 0, hal_i2c, hal_i2c_set_speed, void(hal_i2c_interface_t, uint32_t, void*))
   d59e8:	b508      	push	{r3, lr}
   d59ea:	4b02      	ldr	r3, [pc, #8]	; (d59f4 <hal_i2c_set_speed+0xc>)
   d59ec:	681b      	ldr	r3, [r3, #0]
   d59ee:	681b      	ldr	r3, [r3, #0]
   d59f0:	9301      	str	r3, [sp, #4]
   d59f2:	bd08      	pop	{r3, pc}
   d59f4:	00030228 	.word	0x00030228

000d59f8 <hal_i2c_begin>:
DYNALIB_FN(BASE_IDX + 1, hal_i2c, hal_i2c_enable_dma_mode, void(hal_i2c_interface_t, bool, void*))
DYNALIB_FN(BASE_IDX + 2, hal_i2c, hal_i2c_stretch_clock, void(hal_i2c_interface_t, bool, void*))
DYNALIB_FN(BASE_IDX + 3, hal_i2c, hal_i2c_begin, void(hal_i2c_interface_t, hal_i2c_mode_t, uint8_t, void*))
   d59f8:	b508      	push	{r3, lr}
   d59fa:	4b02      	ldr	r3, [pc, #8]	; (d5a04 <hal_i2c_begin+0xc>)
   d59fc:	681b      	ldr	r3, [r3, #0]
   d59fe:	68db      	ldr	r3, [r3, #12]
   d5a00:	9301      	str	r3, [sp, #4]
   d5a02:	bd08      	pop	{r3, pc}
   d5a04:	00030228 	.word	0x00030228

000d5a08 <hal_i2c_begin_transmission>:
DYNALIB_FN(BASE_IDX + 4, hal_i2c, hal_i2c_end, void(hal_i2c_interface_t, void*))
DYNALIB_FN(BASE_IDX + 5, hal_i2c, hal_i2c_request, uint32_t(hal_i2c_interface_t, uint8_t, uint8_t, uint8_t, void*))
DYNALIB_FN(BASE_IDX + 6, hal_i2c, hal_i2c_begin_transmission, void(hal_i2c_interface_t, uint8_t, const hal_i2c_transmission_config_t*))
   d5a08:	b508      	push	{r3, lr}
   d5a0a:	4b02      	ldr	r3, [pc, #8]	; (d5a14 <hal_i2c_begin_transmission+0xc>)
   d5a0c:	681b      	ldr	r3, [r3, #0]
   d5a0e:	699b      	ldr	r3, [r3, #24]
   d5a10:	9301      	str	r3, [sp, #4]
   d5a12:	bd08      	pop	{r3, pc}
   d5a14:	00030228 	.word	0x00030228

000d5a18 <hal_i2c_end_transmission>:
DYNALIB_FN(BASE_IDX + 7, hal_i2c, hal_i2c_end_transmission, uint8_t(hal_i2c_interface_t, uint8_t, void*))
   d5a18:	b508      	push	{r3, lr}
   d5a1a:	4b02      	ldr	r3, [pc, #8]	; (d5a24 <hal_i2c_end_transmission+0xc>)
   d5a1c:	681b      	ldr	r3, [r3, #0]
   d5a1e:	69db      	ldr	r3, [r3, #28]
   d5a20:	9301      	str	r3, [sp, #4]
   d5a22:	bd08      	pop	{r3, pc}
   d5a24:	00030228 	.word	0x00030228

000d5a28 <hal_i2c_write>:
DYNALIB_FN(BASE_IDX + 8, hal_i2c, hal_i2c_write, uint32_t(hal_i2c_interface_t, uint8_t, void*))
   d5a28:	b508      	push	{r3, lr}
   d5a2a:	4b02      	ldr	r3, [pc, #8]	; (d5a34 <hal_i2c_write+0xc>)
   d5a2c:	681b      	ldr	r3, [r3, #0]
   d5a2e:	6a1b      	ldr	r3, [r3, #32]
   d5a30:	9301      	str	r3, [sp, #4]
   d5a32:	bd08      	pop	{r3, pc}
   d5a34:	00030228 	.word	0x00030228

000d5a38 <hal_i2c_available>:
DYNALIB_FN(BASE_IDX + 9, hal_i2c, hal_i2c_available, int32_t(hal_i2c_interface_t, void*))
   d5a38:	b508      	push	{r3, lr}
   d5a3a:	4b02      	ldr	r3, [pc, #8]	; (d5a44 <hal_i2c_available+0xc>)
   d5a3c:	681b      	ldr	r3, [r3, #0]
   d5a3e:	6a5b      	ldr	r3, [r3, #36]	; 0x24
   d5a40:	9301      	str	r3, [sp, #4]
   d5a42:	bd08      	pop	{r3, pc}
   d5a44:	00030228 	.word	0x00030228

000d5a48 <hal_i2c_read>:
DYNALIB_FN(BASE_IDX + 10, hal_i2c, hal_i2c_read, int32_t(hal_i2c_interface_t, void*))
   d5a48:	b508      	push	{r3, lr}
   d5a4a:	4b02      	ldr	r3, [pc, #8]	; (d5a54 <hal_i2c_read+0xc>)
   d5a4c:	681b      	ldr	r3, [r3, #0]
   d5a4e:	6a9b      	ldr	r3, [r3, #40]	; 0x28
   d5a50:	9301      	str	r3, [sp, #4]
   d5a52:	bd08      	pop	{r3, pc}
   d5a54:	00030228 	.word	0x00030228

000d5a58 <hal_i2c_peek>:
DYNALIB_FN(BASE_IDX + 11, hal_i2c, hal_i2c_peek, int32_t(hal_i2c_interface_t, void*))
   d5a58:	b508      	push	{r3, lr}
   d5a5a:	4b02      	ldr	r3, [pc, #8]	; (d5a64 <hal_i2c_peek+0xc>)
   d5a5c:	681b      	ldr	r3, [r3, #0]
   d5a5e:	6adb      	ldr	r3, [r3, #44]	; 0x2c
   d5a60:	9301      	str	r3, [sp, #4]
   d5a62:	bd08      	pop	{r3, pc}
   d5a64:	00030228 	.word	0x00030228

000d5a68 <hal_i2c_flush>:
DYNALIB_FN(BASE_IDX + 12, hal_i2c, hal_i2c_flush, void(hal_i2c_interface_t, void*))
   d5a68:	b508      	push	{r3, lr}
   d5a6a:	4b02      	ldr	r3, [pc, #8]	; (d5a74 <hal_i2c_flush+0xc>)
   d5a6c:	681b      	ldr	r3, [r3, #0]
   d5a6e:	6b1b      	ldr	r3, [r3, #48]	; 0x30
   d5a70:	9301      	str	r3, [sp, #4]
   d5a72:	bd08      	pop	{r3, pc}
   d5a74:	00030228 	.word	0x00030228

000d5a78 <hal_i2c_is_enabled>:
DYNALIB_FN(BASE_IDX + 13, hal_i2c, hal_i2c_is_enabled, bool(hal_i2c_interface_t, void*))
   d5a78:	b508      	push	{r3, lr}
   d5a7a:	4b02      	ldr	r3, [pc, #8]	; (d5a84 <hal_i2c_is_enabled+0xc>)
   d5a7c:	681b      	ldr	r3, [r3, #0]
   d5a7e:	6b5b      	ldr	r3, [r3, #52]	; 0x34
   d5a80:	9301      	str	r3, [sp, #4]
   d5a82:	bd08      	pop	{r3, pc}
   d5a84:	00030228 	.word	0x00030228

000d5a88 <hal_i2c_init>:
DYNALIB_FN(BASE_IDX + 14, hal_i2c, hal_i2c_set_callback_on_received, void(hal_i2c_interface_t, void(*)(int), void*))
DYNALIB_FN(BASE_IDX + 15, hal_i2c, hal_i2c_set_callback_on_requested, void(hal_i2c_interface_t, void(*)(void), void*))
DYNALIB_FN(BASE_IDX + 16, hal_i2c, hal_i2c_init, int(hal_i2c_interface_t, const hal_i2c_config_t*))
   d5a88:	b508      	push	{r3, lr}
   d5a8a:	4b02      	ldr	r3, [pc, #8]	; (d5a94 <hal_i2c_init+0xc>)
   d5a8c:	681b      	ldr	r3, [r3, #0]
   d5a8e:	6c1b      	ldr	r3, [r3, #64]	; 0x40
   d5a90:	9301      	str	r3, [sp, #4]
   d5a92:	bd08      	pop	{r3, pc}
   d5a94:	00030228 	.word	0x00030228

000d5a98 <hal_i2c_request_ex>:
DYNALIB_FN(BASE_IDX + 17, hal_i2c, hal_i2c_reset, uint8_t(hal_i2c_interface_t, uint32_t, void*))
DYNALIB_FN(BASE_IDX + 18, hal_i2c, hal_i2c_lock, int32_t(hal_i2c_interface_t, void*))
DYNALIB_FN(BASE_IDX + 19, hal_i2c, hal_i2c_unlock, int32_t(hal_i2c_interface_t, void*))
DYNALIB_FN(BASE_IDX + 20, hal_i2c, hal_i2c_request_ex, int32_t(hal_i2c_interface_t, const hal_i2c_transmission_config_t*, void*))
   d5a98:	b508      	push	{r3, lr}
   d5a9a:	4b02      	ldr	r3, [pc, #8]	; (d5aa4 <hal_i2c_request_ex+0xc>)
   d5a9c:	681b      	ldr	r3, [r3, #0]
   d5a9e:	6d1b      	ldr	r3, [r3, #80]	; 0x50
   d5aa0:	9301      	str	r3, [sp, #4]
   d5aa2:	bd08      	pop	{r3, pc}
   d5aa4:	00030228 	.word	0x00030228

000d5aa8 <hal_spi_begin>:
// New HAL functions must be added to the end of this list.
// GNINRAW

DYNALIB_BEGIN(hal_spi)

DYNALIB_FN(0, hal_spi, hal_spi_begin, void(hal_spi_interface_t, uint16_t))
   d5aa8:	b508      	push	{r3, lr}
   d5aaa:	4b02      	ldr	r3, [pc, #8]	; (d5ab4 <hal_spi_begin+0xc>)
   d5aac:	681b      	ldr	r3, [r3, #0]
   d5aae:	681b      	ldr	r3, [r3, #0]
   d5ab0:	9301      	str	r3, [sp, #4]
   d5ab2:	bd08      	pop	{r3, pc}
   d5ab4:	00030230 	.word	0x00030230

000d5ab8 <hal_spi_transfer>:
DYNALIB_FN(1, hal_spi, hal_spi_end, void(hal_spi_interface_t))
DYNALIB_FN(2, hal_spi, hal_spi_set_bit_order, void(hal_spi_interface_t, uint8_t))
DYNALIB_FN(3, hal_spi, hal_spi_set_data_mode, void(hal_spi_interface_t, uint8_t))
DYNALIB_FN(4, hal_spi, hal_spi_set_clock_divider, void(hal_spi_interface_t, uint8_t))
DYNALIB_FN(5, hal_spi, hal_spi_transfer, uint16_t(hal_spi_interface_t, uint16_t))
   d5ab8:	b508      	push	{r3, lr}
   d5aba:	4b02      	ldr	r3, [pc, #8]	; (d5ac4 <hal_spi_transfer+0xc>)
   d5abc:	681b      	ldr	r3, [r3, #0]
   d5abe:	695b      	ldr	r3, [r3, #20]
   d5ac0:	9301      	str	r3, [sp, #4]
   d5ac2:	bd08      	pop	{r3, pc}
   d5ac4:	00030230 	.word	0x00030230

000d5ac8 <hal_spi_init>:
DYNALIB_FN(6, hal_spi, hal_spi_is_enabled_deprecated, bool(void))
DYNALIB_FN(7, hal_spi, hal_spi_init, void(hal_spi_interface_t))
   d5ac8:	b508      	push	{r3, lr}
   d5aca:	4b02      	ldr	r3, [pc, #8]	; (d5ad4 <hal_spi_init+0xc>)
   d5acc:	681b      	ldr	r3, [r3, #0]
   d5ace:	69db      	ldr	r3, [r3, #28]
   d5ad0:	9301      	str	r3, [sp, #4]
   d5ad2:	bd08      	pop	{r3, pc}
   d5ad4:	00030230 	.word	0x00030230

000d5ad8 <hal_spi_is_enabled>:
DYNALIB_FN(8, hal_spi, hal_spi_is_enabled, bool(hal_spi_interface_t))
   d5ad8:	b508      	push	{r3, lr}
   d5ada:	4b02      	ldr	r3, [pc, #8]	; (d5ae4 <hal_spi_is_enabled+0xc>)
   d5adc:	681b      	ldr	r3, [r3, #0]
   d5ade:	6a1b      	ldr	r3, [r3, #32]
   d5ae0:	9301      	str	r3, [sp, #4]
   d5ae2:	bd08      	pop	{r3, pc}
   d5ae4:	00030230 	.word	0x00030230

000d5ae8 <hal_spi_info>:
DYNALIB_FN(9, hal_spi, hal_spi_info, void(hal_spi_interface_t, hal_spi_info_t*, void*))
   d5ae8:	b508      	push	{r3, lr}
   d5aea:	4b02      	ldr	r3, [pc, #8]	; (d5af4 <hal_spi_info+0xc>)
   d5aec:	681b      	ldr	r3, [r3, #0]
   d5aee:	6a5b      	ldr	r3, [r3, #36]	; 0x24
   d5af0:	9301      	str	r3, [sp, #4]
   d5af2:	bd08      	pop	{r3, pc}
   d5af4:	00030230 	.word	0x00030230

000d5af8 <hal_spi_set_settings>:
DYNALIB_FN(10, hal_spi, hal_spi_transfer_dma, void(hal_spi_interface_t, const void*, void*, uint32_t, hal_spi_dma_user_callback))
DYNALIB_FN(11, hal_spi, hal_spi_begin_ext, void(hal_spi_interface_t, hal_spi_mode_t, uint16_t, void*))
DYNALIB_FN(12, hal_spi, hal_spi_set_callback_on_selected, void(hal_spi_interface_t, hal_spi_select_user_callback, void*))
DYNALIB_FN(13, hal_spi, hal_spi_transfer_dma_cancel, void(hal_spi_interface_t))
DYNALIB_FN(14, hal_spi, hal_spi_transfer_dma_status, int32_t(hal_spi_interface_t, hal_spi_transfer_status_t*))
DYNALIB_FN(15, hal_spi, hal_spi_set_settings, int32_t(hal_spi_interface_t, uint8_t, uint8_t, uint8_t, uint8_t, void*))
   d5af8:	b508      	push	{r3, lr}
   d5afa:	4b02      	ldr	r3, [pc, #8]	; (d5b04 <hal_spi_set_settings+0xc>)
   d5afc:	681b      	ldr	r3, [r3, #0]
   d5afe:	6bdb      	ldr	r3, [r3, #60]	; 0x3c
   d5b00:	9301      	str	r3, [sp, #4]
   d5b02:	bd08      	pop	{r3, pc}
   d5b04:	00030230 	.word	0x00030230

000d5b08 <hal_spi_acquire>:
#if HAL_PLATFORM_SPI_HAL_THREAD_SAFETY
DYNALIB_FN(16, hal_spi, hal_spi_acquire, int32_t(hal_spi_interface_t, const hal_spi_acquire_config_t*))
   d5b08:	b508      	push	{r3, lr}
   d5b0a:	4b02      	ldr	r3, [pc, #8]	; (d5b14 <hal_spi_acquire+0xc>)
   d5b0c:	681b      	ldr	r3, [r3, #0]
   d5b0e:	6c1b      	ldr	r3, [r3, #64]	; 0x40
   d5b10:	9301      	str	r3, [sp, #4]
   d5b12:	bd08      	pop	{r3, pc}
   d5b14:	00030230 	.word	0x00030230

000d5b18 <hal_spi_release>:
DYNALIB_FN(17, hal_spi, hal_spi_release, int32_t(hal_spi_interface_t, void*))
   d5b18:	b508      	push	{r3, lr}
   d5b1a:	4b02      	ldr	r3, [pc, #8]	; (d5b24 <hal_spi_release+0xc>)
   d5b1c:	681b      	ldr	r3, [r3, #0]
   d5b1e:	6c5b      	ldr	r3, [r3, #68]	; 0x44
   d5b20:	9301      	str	r3, [sp, #4]
   d5b22:	bd08      	pop	{r3, pc}
   d5b24:	00030230 	.word	0x00030230

000d5b28 <HAL_USB_USART_Init>:
#endif

DYNALIB_BEGIN(hal_usb)

#ifdef USB_CDC_ENABLE
DYNALIB_FN(0, hal_usb, HAL_USB_USART_Init, void(HAL_USB_USART_Serial, const HAL_USB_USART_Config*))
   d5b28:	b508      	push	{r3, lr}
   d5b2a:	4b02      	ldr	r3, [pc, #8]	; (d5b34 <HAL_USB_USART_Init+0xc>)
   d5b2c:	681b      	ldr	r3, [r3, #0]
   d5b2e:	681b      	ldr	r3, [r3, #0]
   d5b30:	9301      	str	r3, [sp, #4]
   d5b32:	bd08      	pop	{r3, pc}
   d5b34:	0003024c 	.word	0x0003024c

000d5b38 <HAL_USB_USART_Available_Data>:
DYNALIB_FN(1, hal_usb, HAL_USB_USART_Begin, void(HAL_USB_USART_Serial, uint32_t, void *))
DYNALIB_FN(2, hal_usb, HAL_USB_USART_End, void(HAL_USB_USART_Serial))
DYNALIB_FN(3, hal_usb, HAL_USB_USART_Baud_Rate, unsigned int(HAL_USB_USART_Serial))
DYNALIB_FN(4, hal_usb, HAL_USB_USART_Available_Data, int32_t(HAL_USB_USART_Serial))
   d5b38:	b508      	push	{r3, lr}
   d5b3a:	4b02      	ldr	r3, [pc, #8]	; (d5b44 <HAL_USB_USART_Available_Data+0xc>)
   d5b3c:	681b      	ldr	r3, [r3, #0]
   d5b3e:	691b      	ldr	r3, [r3, #16]
   d5b40:	9301      	str	r3, [sp, #4]
   d5b42:	bd08      	pop	{r3, pc}
   d5b44:	0003024c 	.word	0x0003024c

000d5b48 <HAL_USB_USART_Available_Data_For_Write>:
DYNALIB_FN(5, hal_usb, HAL_USB_USART_Available_Data_For_Write, int32_t(HAL_USB_USART_Serial))
   d5b48:	b508      	push	{r3, lr}
   d5b4a:	4b02      	ldr	r3, [pc, #8]	; (d5b54 <HAL_USB_USART_Available_Data_For_Write+0xc>)
   d5b4c:	681b      	ldr	r3, [r3, #0]
   d5b4e:	695b      	ldr	r3, [r3, #20]
   d5b50:	9301      	str	r3, [sp, #4]
   d5b52:	bd08      	pop	{r3, pc}
   d5b54:	0003024c 	.word	0x0003024c

000d5b58 <HAL_USB_USART_Receive_Data>:
DYNALIB_FN(6, hal_usb, HAL_USB_USART_Receive_Data, int32_t(HAL_USB_USART_Serial, uint8_t))
   d5b58:	b508      	push	{r3, lr}
   d5b5a:	4b02      	ldr	r3, [pc, #8]	; (d5b64 <HAL_USB_USART_Receive_Data+0xc>)
   d5b5c:	681b      	ldr	r3, [r3, #0]
   d5b5e:	699b      	ldr	r3, [r3, #24]
   d5b60:	9301      	str	r3, [sp, #4]
   d5b62:	bd08      	pop	{r3, pc}
   d5b64:	0003024c 	.word	0x0003024c

000d5b68 <HAL_USB_USART_Send_Data>:
DYNALIB_FN(7, hal_usb, HAL_USB_USART_Send_Data, int32_t(HAL_USB_USART_Serial, uint8_t))
   d5b68:	b508      	push	{r3, lr}
   d5b6a:	4b02      	ldr	r3, [pc, #8]	; (d5b74 <HAL_USB_USART_Send_Data+0xc>)
   d5b6c:	681b      	ldr	r3, [r3, #0]
   d5b6e:	69db      	ldr	r3, [r3, #28]
   d5b70:	9301      	str	r3, [sp, #4]
   d5b72:	bd08      	pop	{r3, pc}
   d5b74:	0003024c 	.word	0x0003024c

000d5b78 <HAL_USB_USART_Flush_Data>:
DYNALIB_FN(8, hal_usb, HAL_USB_USART_Flush_Data, void(HAL_USB_USART_Serial))
   d5b78:	b508      	push	{r3, lr}
   d5b7a:	4b02      	ldr	r3, [pc, #8]	; (d5b84 <HAL_USB_USART_Flush_Data+0xc>)
   d5b7c:	681b      	ldr	r3, [r3, #0]
   d5b7e:	6a1b      	ldr	r3, [r3, #32]
   d5b80:	9301      	str	r3, [sp, #4]
   d5b82:	bd08      	pop	{r3, pc}
   d5b84:	0003024c 	.word	0x0003024c

000d5b88 <panic_>:
DYNALIB_FN(9, services, LED_Toggle, void(Led_TypeDef))
DYNALIB_FN(10, services, LED_Fade, void(Led_TypeDef))
DYNALIB_FN(11, services, Get_LED_Brightness, uint8_t(void))

DYNALIB_FN(12, services, set_logger_output, void(debug_output_fn, LoggerOutputLevel)) // Deprecated
DYNALIB_FN(13, services, panic_, void(ePanicCode, void*, void(*)(uint32_t)))
   d5b88:	b508      	push	{r3, lr}
   d5b8a:	4b02      	ldr	r3, [pc, #8]	; (d5b94 <panic_+0xc>)
   d5b8c:	681b      	ldr	r3, [r3, #0]
   d5b8e:	6b5b      	ldr	r3, [r3, #52]	; 0x34
   d5b90:	9301      	str	r3, [sp, #4]
   d5b92:	bd08      	pop	{r3, pc}
   d5b94:	00030260 	.word	0x00030260

000d5b98 <set_system_mode>:
#endif

DYNALIB_BEGIN(system)

DYNALIB_FN(0, system, system_mode, System_Mode_TypeDef(void))
DYNALIB_FN(1, system, set_system_mode, void(System_Mode_TypeDef))
   d5b98:	b508      	push	{r3, lr}
   d5b9a:	4b02      	ldr	r3, [pc, #8]	; (d5ba4 <set_system_mode+0xc>)
   d5b9c:	681b      	ldr	r3, [r3, #0]
   d5b9e:	685b      	ldr	r3, [r3, #4]
   d5ba0:	9301      	str	r3, [sp, #4]
   d5ba2:	bd08      	pop	{r3, pc}
   d5ba4:	00030220 	.word	0x00030220

000d5ba8 <system_delay_ms>:

DYNALIB_FN(2, system, set_ymodem_serial_flash_update_handler, void(ymodem_serial_flash_update_handler))
DYNALIB_FN(3, system, system_firmwareUpdate, bool(Stream*, void*))
DYNALIB_FN(4, system, system_fileTransfer, bool(system_file_transfer_t*, void*))

DYNALIB_FN(5, system, system_delay_ms, void(unsigned long, bool))
   d5ba8:	b508      	push	{r3, lr}
   d5baa:	4b02      	ldr	r3, [pc, #8]	; (d5bb4 <system_delay_ms+0xc>)
   d5bac:	681b      	ldr	r3, [r3, #0]
   d5bae:	695b      	ldr	r3, [r3, #20]
   d5bb0:	9301      	str	r3, [sp, #4]
   d5bb2:	bd08      	pop	{r3, pc}
   d5bb4:	00030220 	.word	0x00030220

000d5bb8 <system_thread_set_state>:
DYNALIB_FN(6, system, system_sleep, int(Spark_Sleep_TypeDef, long, uint32_t, void*))
DYNALIB_FN(7, system, system_sleep_pin, int(uint16_t, uint16_t, long, uint32_t, void*))
DYNALIB_FN(8, system, system_subscribe_event, int(system_event_t, system_event_handler_t*, SystemEventContext*))
DYNALIB_FN(9, system, system_unsubscribe_event, void(system_event_t, system_event_handler_t*, void*))
DYNALIB_FN(10, system, system_button_pushed_duration, uint16_t(uint8_t, void*))
DYNALIB_FN(11, system, system_thread_set_state, void(spark::feature::State, void*))
   d5bb8:	b508      	push	{r3, lr}
   d5bba:	4b02      	ldr	r3, [pc, #8]	; (d5bc4 <system_thread_set_state+0xc>)
   d5bbc:	681b      	ldr	r3, [r3, #0]
   d5bbe:	6adb      	ldr	r3, [r3, #44]	; 0x2c
   d5bc0:	9301      	str	r3, [sp, #4]
   d5bc2:	bd08      	pop	{r3, pc}
   d5bc4:	00030220 	.word	0x00030220

000d5bc8 <system_ctrl_set_app_request_handler>:
DYNALIB_FN(BASE_IDX + 6, system, led_pattern_period, uint16_t(int, int, void*))
DYNALIB_FN(BASE_IDX + 7, system, system_set_tester_handlers, int(system_tester_handlers_t*, void*))
DYNALIB_FN(BASE_IDX + 8, system, system_format_diag_data, int(const uint16_t*, size_t, unsigned, appender_fn, void*, void*))

// Control requests
DYNALIB_FN(BASE_IDX + 9, system, system_ctrl_set_app_request_handler, int(ctrl_request_handler_fn, void*))
   d5bc8:	b508      	push	{r3, lr}
   d5bca:	4b03      	ldr	r3, [pc, #12]	; (d5bd8 <system_ctrl_set_app_request_handler+0x10>)
   d5bcc:	681b      	ldr	r3, [r3, #0]
   d5bce:	f8d3 3088 	ldr.w	r3, [r3, #136]	; 0x88
   d5bd2:	9301      	str	r3, [sp, #4]
   d5bd4:	bd08      	pop	{r3, pc}
   d5bd6:	0000      	.short	0x0000
   d5bd8:	00030220 	.word	0x00030220

000d5bdc <system_ctrl_set_result>:
DYNALIB_FN(BASE_IDX + 10, system, system_ctrl_alloc_reply_data, int(ctrl_request*, size_t, void*))
DYNALIB_FN(BASE_IDX + 11, system, system_ctrl_free_request_data, void(ctrl_request*, void*))
DYNALIB_FN(BASE_IDX + 12, system, system_ctrl_set_result, void(ctrl_request*, int, ctrl_completion_handler_fn, void*, void*))
   d5bdc:	b508      	push	{r3, lr}
   d5bde:	4b03      	ldr	r3, [pc, #12]	; (d5bec <system_ctrl_set_result+0x10>)
   d5be0:	681b      	ldr	r3, [r3, #0]
   d5be2:	f8d3 3094 	ldr.w	r3, [r3, #148]	; 0x94
   d5be6:	9301      	str	r3, [sp, #4]
   d5be8:	bd08      	pop	{r3, pc}
   d5bea:	0000      	.short	0x0000
   d5bec:	00030220 	.word	0x00030220

000d5bf0 <network_connect>:
#endif

DYNALIB_BEGIN(system_net)

DYNALIB_FN(0, system_net, network_config, const void*(network_handle_t, uint32_t, void*))
DYNALIB_FN(1, system_net, network_connect, void(network_handle_t, uint32_t, uint32_t, void*))
   d5bf0:	b508      	push	{r3, lr}
   d5bf2:	4b02      	ldr	r3, [pc, #8]	; (d5bfc <network_connect+0xc>)
   d5bf4:	681b      	ldr	r3, [r3, #0]
   d5bf6:	685b      	ldr	r3, [r3, #4]
   d5bf8:	9301      	str	r3, [sp, #4]
   d5bfa:	bd08      	pop	{r3, pc}
   d5bfc:	00030240 	.word	0x00030240

000d5c00 <network_connecting>:
DYNALIB_FN(2, system_net, network_connecting, bool(network_handle_t, uint32_t, void*))
   d5c00:	b508      	push	{r3, lr}
   d5c02:	4b02      	ldr	r3, [pc, #8]	; (d5c0c <network_connecting+0xc>)
   d5c04:	681b      	ldr	r3, [r3, #0]
   d5c06:	689b      	ldr	r3, [r3, #8]
   d5c08:	9301      	str	r3, [sp, #4]
   d5c0a:	bd08      	pop	{r3, pc}
   d5c0c:	00030240 	.word	0x00030240

000d5c10 <network_disconnect>:
DYNALIB_FN(3, system_net, network_disconnect, void(network_handle_t, uint32_t, void*))
   d5c10:	b508      	push	{r3, lr}
   d5c12:	4b02      	ldr	r3, [pc, #8]	; (d5c1c <network_disconnect+0xc>)
   d5c14:	681b      	ldr	r3, [r3, #0]
   d5c16:	68db      	ldr	r3, [r3, #12]
   d5c18:	9301      	str	r3, [sp, #4]
   d5c1a:	bd08      	pop	{r3, pc}
   d5c1c:	00030240 	.word	0x00030240

000d5c20 <network_ready>:
DYNALIB_FN(4, system_net, network_ready, bool(network_handle_t, uint32_t, void*))
   d5c20:	b508      	push	{r3, lr}
   d5c22:	4b02      	ldr	r3, [pc, #8]	; (d5c2c <network_ready+0xc>)
   d5c24:	681b      	ldr	r3, [r3, #0]
   d5c26:	691b      	ldr	r3, [r3, #16]
   d5c28:	9301      	str	r3, [sp, #4]
   d5c2a:	bd08      	pop	{r3, pc}
   d5c2c:	00030240 	.word	0x00030240

000d5c30 <network_on>:
DYNALIB_FN(5, system_net, network_on, void(network_handle_t, uint32_t, uint32_t, void*))
   d5c30:	b508      	push	{r3, lr}
   d5c32:	4b02      	ldr	r3, [pc, #8]	; (d5c3c <network_on+0xc>)
   d5c34:	681b      	ldr	r3, [r3, #0]
   d5c36:	695b      	ldr	r3, [r3, #20]
   d5c38:	9301      	str	r3, [sp, #4]
   d5c3a:	bd08      	pop	{r3, pc}
   d5c3c:	00030240 	.word	0x00030240

000d5c40 <network_off>:
DYNALIB_FN(6, system_net, network_off, void(network_handle_t, uint32_t, uint32_t, void*))
   d5c40:	b508      	push	{r3, lr}
   d5c42:	4b02      	ldr	r3, [pc, #8]	; (d5c4c <network_off+0xc>)
   d5c44:	681b      	ldr	r3, [r3, #0]
   d5c46:	699b      	ldr	r3, [r3, #24]
   d5c48:	9301      	str	r3, [sp, #4]
   d5c4a:	bd08      	pop	{r3, pc}
   d5c4c:	00030240 	.word	0x00030240

000d5c50 <network_listen>:
DYNALIB_FN(7, system_net, network_listen, void(network_handle_t, uint32_t, void*))
   d5c50:	b508      	push	{r3, lr}
   d5c52:	4b02      	ldr	r3, [pc, #8]	; (d5c5c <network_listen+0xc>)
   d5c54:	681b      	ldr	r3, [r3, #0]
   d5c56:	69db      	ldr	r3, [r3, #28]
   d5c58:	9301      	str	r3, [sp, #4]
   d5c5a:	bd08      	pop	{r3, pc}
   d5c5c:	00030240 	.word	0x00030240

000d5c60 <network_listening>:
DYNALIB_FN(8, system_net, network_listening, bool(network_handle_t, uint32_t, void*))
   d5c60:	b508      	push	{r3, lr}
   d5c62:	4b02      	ldr	r3, [pc, #8]	; (d5c6c <network_listening+0xc>)
   d5c64:	681b      	ldr	r3, [r3, #0]
   d5c66:	6a1b      	ldr	r3, [r3, #32]
   d5c68:	9301      	str	r3, [sp, #4]
   d5c6a:	bd08      	pop	{r3, pc}
   d5c6c:	00030240 	.word	0x00030240

000d5c70 <network_set_listen_timeout>:
DYNALIB_FN(9, system_net, network_has_credentials, bool(network_handle_t, uint32_t, void*))
DYNALIB_FN(10, system_net, network_set_credentials, int(network_handle_t, uint32_t, NetworkCredentials*, void*))
DYNALIB_FN(11, system_net, network_clear_credentials, bool(network_handle_t, uint32_t, NetworkCredentials*, void*))
DYNALIB_FN(12, system_net, network_set_listen_timeout, void(network_handle_t, uint16_t, void*))
   d5c70:	b508      	push	{r3, lr}
   d5c72:	4b02      	ldr	r3, [pc, #8]	; (d5c7c <network_set_listen_timeout+0xc>)
   d5c74:	681b      	ldr	r3, [r3, #0]
   d5c76:	6b1b      	ldr	r3, [r3, #48]	; 0x30
   d5c78:	9301      	str	r3, [sp, #4]
   d5c7a:	bd08      	pop	{r3, pc}
   d5c7c:	00030240 	.word	0x00030240

000d5c80 <network_get_listen_timeout>:
DYNALIB_FN(13, system_net, network_get_listen_timeout, uint16_t(network_handle_t, uint32_t, void*))
   d5c80:	b508      	push	{r3, lr}
   d5c82:	4b02      	ldr	r3, [pc, #8]	; (d5c8c <network_get_listen_timeout+0xc>)
   d5c84:	681b      	ldr	r3, [r3, #0]
   d5c86:	6b5b      	ldr	r3, [r3, #52]	; 0x34
   d5c88:	9301      	str	r3, [sp, #4]
   d5c8a:	bd08      	pop	{r3, pc}
   d5c8c:	00030240 	.word	0x00030240

000d5c90 <network_is_on>:
DYNALIB_FN(14, system_net, network_set_hostname, int(network_handle_t, uint32_t, const char*, void*))
DYNALIB_FN(15, system_net, network_get_hostname, int(network_handle_t, uint32_t, char*, size_t, void*))
DYNALIB_FN(16, system_net, network_is_on, bool(network_handle_t, void*))
   d5c90:	b508      	push	{r3, lr}
   d5c92:	4b02      	ldr	r3, [pc, #8]	; (d5c9c <network_is_on+0xc>)
   d5c94:	681b      	ldr	r3, [r3, #0]
   d5c96:	6c1b      	ldr	r3, [r3, #64]	; 0x40
   d5c98:	9301      	str	r3, [sp, #4]
   d5c9a:	bd08      	pop	{r3, pc}
   d5c9c:	00030240 	.word	0x00030240

000d5ca0 <network_is_off>:
DYNALIB_FN(17, system_net, network_is_off, bool(network_handle_t, void*))
   d5ca0:	b508      	push	{r3, lr}
   d5ca2:	4b02      	ldr	r3, [pc, #8]	; (d5cac <network_is_off+0xc>)
   d5ca4:	681b      	ldr	r3, [r3, #0]
   d5ca6:	6c5b      	ldr	r3, [r3, #68]	; 0x44
   d5ca8:	9301      	str	r3, [sp, #4]
   d5caa:	bd08      	pop	{r3, pc}
   d5cac:	00030240 	.word	0x00030240

000d5cb0 <spark_set_random_seed_from_cloud_handler>:
DYNALIB_FN(10, system_cloud, spark_unsubscribe, void(void*))
DYNALIB_FN(11, system_cloud, spark_sync_time, bool(void*))
DYNALIB_FN(12, system_cloud, spark_sync_time_pending, bool(void*))
DYNALIB_FN(13, system_cloud, spark_sync_time_last, system_tick_t(time32_t*, time_t*))
DYNALIB_FN(14, system_cloud, spark_set_connection_property, int(unsigned, unsigned, const void*, void*))
DYNALIB_FN(15, system_cloud, spark_set_random_seed_from_cloud_handler, int(void (*handler)(unsigned int), void*))
   d5cb0:	b508      	push	{r3, lr}
   d5cb2:	4b02      	ldr	r3, [pc, #8]	; (d5cbc <spark_set_random_seed_from_cloud_handler+0xc>)
   d5cb4:	681b      	ldr	r3, [r3, #0]
   d5cb6:	6bdb      	ldr	r3, [r3, #60]	; 0x3c
   d5cb8:	9301      	str	r3, [sp, #4]
   d5cba:	bd08      	pop	{r3, pc}
   d5cbc:	00030244 	.word	0x00030244

000d5cc0 <malloc>:
#include "hal_platform.h"
#endif // defined(DYNALIB_EXPORT) || (defined(DYNALIB_IMPORT) && !defined(RT_DYNALIB_NO_DEPENDENCY_BREAKING_IMPORTS))

DYNALIB_BEGIN(rt)

DYNALIB_FN(0, rt, malloc, void*(size_t))
   d5cc0:	b508      	push	{r3, lr}
   d5cc2:	4b02      	ldr	r3, [pc, #8]	; (d5ccc <malloc+0xc>)
   d5cc4:	681b      	ldr	r3, [r3, #0]
   d5cc6:	681b      	ldr	r3, [r3, #0]
   d5cc8:	9301      	str	r3, [sp, #4]
   d5cca:	bd08      	pop	{r3, pc}
   d5ccc:	0003021c 	.word	0x0003021c

000d5cd0 <free>:
DYNALIB_FN(1, rt, free, void(void*))
   d5cd0:	b508      	push	{r3, lr}
   d5cd2:	4b02      	ldr	r3, [pc, #8]	; (d5cdc <free+0xc>)
   d5cd4:	681b      	ldr	r3, [r3, #0]
   d5cd6:	685b      	ldr	r3, [r3, #4]
   d5cd8:	9301      	str	r3, [sp, #4]
   d5cda:	bd08      	pop	{r3, pc}
   d5cdc:	0003021c 	.word	0x0003021c

000d5ce0 <vsnprintf>:
DYNALIB_FN(4, rt, siprintf, int(char*, const char*, ...))
DYNALIB_FN(5, rt, sscanf, int(const char*, const char*, ...))
DYNALIB_FN(6, rt, siscanf, int(const char*, const char*, ...))
DYNALIB_FN(7, rt, snprintf, int(char*, size_t, const char*, ...))
DYNALIB_FN(8, rt, sniprintf, int(char*, size_t, const char*, ...))
DYNALIB_FN(9, rt, vsnprintf, int(char*, size_t, const char*, va_list))
   d5ce0:	b508      	push	{r3, lr}
   d5ce2:	4b02      	ldr	r3, [pc, #8]	; (d5cec <vsnprintf+0xc>)
   d5ce4:	681b      	ldr	r3, [r3, #0]
   d5ce6:	6a5b      	ldr	r3, [r3, #36]	; 0x24
   d5ce8:	9301      	str	r3, [sp, #4]
   d5cea:	bd08      	pop	{r3, pc}
   d5cec:	0003021c 	.word	0x0003021c

000d5cf0 <newlib_impure_ptr_callback>:
// RT is currently being imported into system-part1 from system-part2,
// which is the reverse direction.

#if defined(DYNALIB_EXPORT) || (defined(DYNALIB_IMPORT) && !defined(RT_DYNALIB_NO_DEPENDENCY_BREAKING_IMPORTS))
DYNALIB_FN(16, rt, __assert_func, void(const char*, int, const char*, const char*))
DYNALIB_FN(17, rt, newlib_impure_ptr_callback, void(void (*)(struct _reent*, size_t, uint32_t, void*), void*))
   d5cf0:	b508      	push	{r3, lr}
   d5cf2:	4b02      	ldr	r3, [pc, #8]	; (d5cfc <newlib_impure_ptr_callback+0xc>)
   d5cf4:	681b      	ldr	r3, [r3, #0]
   d5cf6:	6c5b      	ldr	r3, [r3, #68]	; 0x44
   d5cf8:	9301      	str	r3, [sp, #4]
   d5cfa:	bd08      	pop	{r3, pc}
   d5cfc:	0003021c 	.word	0x0003021c

000d5d00 <_ZN5spark13EthernetClass9listeningEv>:
    uint16_t getListenTimeout(void) {
        return network_get_listen_timeout(*this, 0, NULL);
    }

    bool listening(void) {
        return network_listening(*this, 0, NULL);
   d5d00:	2200      	movs	r2, #0
   d5d02:	6840      	ldr	r0, [r0, #4]
   d5d04:	4611      	mov	r1, r2
   d5d06:	f7ff bfab 	b.w	d5c60 <network_listening>

000d5d0a <_ZN5spark13EthernetClass16getListenTimeoutEv>:
        return network_get_listen_timeout(*this, 0, NULL);
   d5d0a:	2200      	movs	r2, #0
   d5d0c:	6840      	ldr	r0, [r0, #4]
   d5d0e:	4611      	mov	r1, r2
   d5d10:	f7ff bfb6 	b.w	d5c80 <network_get_listen_timeout>

000d5d14 <_ZN5spark13EthernetClass16setListenTimeoutEt>:
        network_set_listen_timeout(*this, timeout, NULL);
   d5d14:	6840      	ldr	r0, [r0, #4]
   d5d16:	2200      	movs	r2, #0
   d5d18:	f7ff bfaa 	b.w	d5c70 <network_set_listen_timeout>

000d5d1c <_ZN5spark13EthernetClass6listenEb>:
        network_listen(*this, begin ? 0 : 1, NULL);
   d5d1c:	6840      	ldr	r0, [r0, #4]
   d5d1e:	2200      	movs	r2, #0
   d5d20:	f081 0101 	eor.w	r1, r1, #1
   d5d24:	f7ff bf94 	b.w	d5c50 <network_listen>

000d5d28 <_ZN5spark13EthernetClass3offEv>:
        network_off(*this, 0, 0, NULL);
   d5d28:	2300      	movs	r3, #0
   d5d2a:	6840      	ldr	r0, [r0, #4]
   d5d2c:	461a      	mov	r2, r3
   d5d2e:	4619      	mov	r1, r3
   d5d30:	f7ff bf86 	b.w	d5c40 <network_off>

000d5d34 <_ZN5spark13EthernetClass2onEv>:
        network_on(*this, 0, 0, NULL);
   d5d34:	2300      	movs	r3, #0
   d5d36:	6840      	ldr	r0, [r0, #4]
   d5d38:	461a      	mov	r2, r3
   d5d3a:	4619      	mov	r1, r3
   d5d3c:	f7ff bf78 	b.w	d5c30 <network_on>

000d5d40 <_ZN5spark13EthernetClass5readyEv>:
    }

    bool ready() {
        return network_ready(*this, 0,  NULL);
   d5d40:	2200      	movs	r2, #0
   d5d42:	6840      	ldr	r0, [r0, #4]
   d5d44:	4611      	mov	r1, r2
   d5d46:	f7ff bf6b 	b.w	d5c20 <network_ready>

000d5d4a <_ZN5spark13EthernetClass10connectingEv>:
        return network_connecting(*this, 0, NULL);
   d5d4a:	2200      	movs	r2, #0
   d5d4c:	6840      	ldr	r0, [r0, #4]
   d5d4e:	4611      	mov	r1, r2
   d5d50:	f7ff bf56 	b.w	d5c00 <network_connecting>

000d5d54 <_ZN5spark13EthernetClass10disconnectEv>:
        network_disconnect(*this, NETWORK_DISCONNECT_REASON_USER, NULL);
   d5d54:	6840      	ldr	r0, [r0, #4]
   d5d56:	2200      	movs	r2, #0
   d5d58:	2102      	movs	r1, #2
   d5d5a:	f7ff bf59 	b.w	d5c10 <network_disconnect>

000d5d5e <_ZN5spark13EthernetClass7connectEj>:
        network_connect(*this, flags, 0, NULL);
   d5d5e:	2300      	movs	r3, #0
   d5d60:	6840      	ldr	r0, [r0, #4]
   d5d62:	461a      	mov	r2, r3
   d5d64:	f7ff bf44 	b.w	d5bf0 <network_connect>

000d5d68 <_GLOBAL__sub_I__ZN5spark8EthernetE>:
    static NetworkClass& from(network_interface_t nif);

    virtual IPAddress resolve(const char* name);

    explicit NetworkClass(network_interface_t iface)
            : iface_(iface) {
   d5d68:	4b02      	ldr	r3, [pc, #8]	; (d5d74 <_GLOBAL__sub_I__ZN5spark8EthernetE+0xc>)
   d5d6a:	2203      	movs	r2, #3
   d5d6c:	605a      	str	r2, [r3, #4]
            NetworkClass(NETWORK_INTERFACE_ETHERNET) {
   d5d6e:	4a02      	ldr	r2, [pc, #8]	; (d5d78 <_GLOBAL__sub_I__ZN5spark8EthernetE+0x10>)
   d5d70:	601a      	str	r2, [r3, #0]

namespace spark {

EthernetClass Ethernet;

} // spark
   d5d72:	4770      	bx	lr
   d5d74:	2003e650 	.word	0x2003e650
   d5d78:	000d758c 	.word	0x000d758c

000d5d7c <_ZN8SPIClass4lockEv.isra.0>:
  }

  int lock()
  {
#if HAL_PLATFORM_SPI_HAL_THREAD_SAFETY
    return hal_spi_acquire(_spi, nullptr);
   d5d7c:	2100      	movs	r1, #0
   d5d7e:	f7ff bec3 	b.w	d5b08 <hal_spi_acquire>

000d5d82 <_ZN8SPIClass6unlockEv.isra.0>:
  }

  void unlock()
  {
#if HAL_PLATFORM_SPI_HAL_THREAD_SAFETY
    hal_spi_release(_spi, nullptr);
   d5d82:	2100      	movs	r1, #0
   d5d84:	f7ff bec8 	b.w	d5b18 <hal_spi_release>

000d5d88 <_ZN8SPIClassC1E19hal_spi_interface_t>:
    }
    return particle::SPISettings(info->clock, info->bit_order, info->data_mode);
}
} // namespace

SPIClass::SPIClass(hal_spi_interface_t spi)
   d5d88:	b510      	push	{r4, lr}
   d5d8a:	4604      	mov	r4, r0
   d5d8c:	4608      	mov	r0, r1
{
    _spi = spi;
   d5d8e:	7021      	strb	r1, [r4, #0]
    hal_spi_init(_spi);
   d5d90:	f7ff fe9a 	bl	d5ac8 <hal_spi_init>
    _dividerReference = SPI_CLK_SYSTEM; // 0 indicates the system clock
   d5d94:	2300      	movs	r3, #0
   d5d96:	6063      	str	r3, [r4, #4]
}
   d5d98:	4620      	mov	r0, r4
   d5d9a:	bd10      	pop	{r4, pc}

000d5d9c <_ZN8SPIClass5beginEv>:

void SPIClass::begin()
{
   d5d9c:	b510      	push	{r4, lr}
   d5d9e:	4604      	mov	r4, r0
    // TODO: Fetch default pin from HAL
    if (!lock())
   d5da0:	7800      	ldrb	r0, [r0, #0]
   d5da2:	f7ff ffeb 	bl	d5d7c <_ZN8SPIClass4lockEv.isra.0>
   d5da6:	b948      	cbnz	r0, d5dbc <_ZN8SPIClass5beginEv+0x20>
    {
        hal_spi_begin(_spi, SPI_DEFAULT_SS);
   d5da8:	7820      	ldrb	r0, [r4, #0]
   d5daa:	f64f 71ff 	movw	r1, #65535	; 0xffff
   d5dae:	f7ff fe7b 	bl	d5aa8 <hal_spi_begin>
        unlock();
   d5db2:	7820      	ldrb	r0, [r4, #0]
    }
}
   d5db4:	e8bd 4010 	ldmia.w	sp!, {r4, lr}
        unlock();
   d5db8:	f7ff bfe3 	b.w	d5d82 <_ZN8SPIClass6unlockEv.isra.0>
}
   d5dbc:	bd10      	pop	{r4, pc}

000d5dbe <_ZN8SPIClass14endTransactionEv>:
}

void SPIClass::endTransaction()
{
    // Release peripheral
    unlock();
   d5dbe:	7800      	ldrb	r0, [r0, #0]
   d5dc0:	f7ff bfdf 	b.w	d5d82 <_ZN8SPIClass6unlockEv.isra.0>

000d5dc4 <_ZN8SPIClass19computeClockDividerEjjRhRj>:
void SPIClass::computeClockDivider(unsigned reference, unsigned targetSpeed, uint8_t& divider,
                                   unsigned& clock)
{
    clock = reference;
    uint8_t scale = 0;
    clock >>= 1; // div2 is the first
   d5dc4:	0840      	lsrs	r0, r0, #1
{
   d5dc6:	b530      	push	{r4, r5, lr}
    clock >>= 1; // div2 is the first
   d5dc8:	6018      	str	r0, [r3, #0]
   d5dca:	2400      	movs	r4, #0
    while (clock > targetSpeed && scale < 7)
   d5dcc:	6818      	ldr	r0, [r3, #0]
   d5dce:	4288      	cmp	r0, r1
   d5dd0:	b2e5      	uxtb	r5, r4
   d5dd2:	d906      	bls.n	d5de2 <_ZN8SPIClass19computeClockDividerEjjRhRj+0x1e>
   d5dd4:	3401      	adds	r4, #1
   d5dd6:	2c08      	cmp	r4, #8
   d5dd8:	d002      	beq.n	d5de0 <_ZN8SPIClass19computeClockDividerEjjRhRj+0x1c>
    {
        clock >>= 1;
   d5dda:	0840      	lsrs	r0, r0, #1
   d5ddc:	6018      	str	r0, [r3, #0]
    while (clock > targetSpeed && scale < 7)
   d5dde:	e7f5      	b.n	d5dcc <_ZN8SPIClass19computeClockDividerEjjRhRj+0x8>
   d5de0:	2507      	movs	r5, #7
        scale++;
    }
    divider = clock_divisors[scale];
   d5de2:	4b02      	ldr	r3, [pc, #8]	; (d5dec <_ZN8SPIClass19computeClockDividerEjjRhRj+0x28>)
   d5de4:	5d5b      	ldrb	r3, [r3, r5]
   d5de6:	7013      	strb	r3, [r2, #0]
}
   d5de8:	bd30      	pop	{r4, r5, pc}
   d5dea:	bf00      	nop
   d5dec:	000d75c0 	.word	0x000d75c0

000d5df0 <_ZN8SPIClass16beginTransactionERKN8particle11SPISettingsE>:
{
   d5df0:	e92d 43f0 	stmdb	sp!, {r4, r5, r6, r7, r8, r9, lr}
   d5df4:	4606      	mov	r6, r0
   d5df6:	b08f      	sub	sp, #60	; 0x3c
    CHECK(lock());
   d5df8:	7800      	ldrb	r0, [r0, #0]
{
   d5dfa:	460c      	mov	r4, r1
    CHECK(lock());
   d5dfc:	f7ff ffbe 	bl	d5d7c <_ZN8SPIClass4lockEv.isra.0>
   d5e00:	2800      	cmp	r0, #0
   d5e02:	db1b      	blt.n	d5e3c <_ZN8SPIClass16beginTransactionERKN8particle11SPISettingsE+0x4c>
    querySpiInfo(_spi, &spi_info);
   d5e04:	7835      	ldrb	r5, [r6, #0]
    memset(info, 0, sizeof(hal_spi_info_t));
   d5e06:	2214      	movs	r2, #20
   d5e08:	2100      	movs	r1, #0
   d5e0a:	a809      	add	r0, sp, #36	; 0x24
   d5e0c:	f000 fdc8 	bl	d69a0 <memset>
    info->version = HAL_SPI_INFO_VERSION_1;
   d5e10:	230b      	movs	r3, #11
    hal_spi_info(spi, info, nullptr);
   d5e12:	2200      	movs	r2, #0
   d5e14:	a909      	add	r1, sp, #36	; 0x24
   d5e16:	4628      	mov	r0, r5
    info->version = HAL_SPI_INFO_VERSION_1;
   d5e18:	f8ad 3024 	strh.w	r3, [sp, #36]	; 0x24
    hal_spi_info(spi, info, nullptr);
   d5e1c:	f7ff fe64 	bl	d5ae8 <hal_spi_info>
    if (!info || !info->enabled || info->default_settings)
   d5e20:	f89d 302d 	ldrb.w	r3, [sp, #45]	; 0x2d
   d5e24:	b113      	cbz	r3, d5e2c <_ZN8SPIClass16beginTransactionERKN8particle11SPISettingsE+0x3c>
   d5e26:	f89d 502c 	ldrb.w	r5, [sp, #44]	; 0x2c
   d5e2a:	b155      	cbz	r5, d5e42 <_ZN8SPIClass16beginTransactionERKN8particle11SPISettingsE+0x52>
  {
   d5e2c:	2700      	movs	r7, #0
   d5e2e:	46b9      	mov	r9, r7
   d5e30:	46b8      	mov	r8, r7
   d5e32:	2501      	movs	r5, #1
    if (default_ && other.default_)
   d5e34:	7923      	ldrb	r3, [r4, #4]
   d5e36:	b15d      	cbz	r5, d5e50 <_ZN8SPIClass16beginTransactionERKN8particle11SPISettingsE+0x60>
   d5e38:	b1c3      	cbz	r3, d5e6c <_ZN8SPIClass16beginTransactionERKN8particle11SPISettingsE+0x7c>
    return 0;
   d5e3a:	2000      	movs	r0, #0
}
   d5e3c:	b00f      	add	sp, #60	; 0x3c
   d5e3e:	e8bd 83f0 	ldmia.w	sp!, {r4, r5, r6, r7, r8, r9, pc}
    return particle::SPISettings(info->clock, info->bit_order, info->data_mode);
   d5e42:	f8dd 8030 	ldr.w	r8, [sp, #48]	; 0x30
   d5e46:	f89d 9034 	ldrb.w	r9, [sp, #52]	; 0x34
   d5e4a:	f89d 7035 	ldrb.w	r7, [sp, #53]	; 0x35
  }
   d5e4e:	e7f1      	b.n	d5e34 <_ZN8SPIClass16beginTransactionERKN8particle11SPISettingsE+0x44>
    if (default_ == other.default_ &&
   d5e50:	2b00      	cmp	r3, #0
   d5e52:	d135      	bne.n	d5ec0 <_ZN8SPIClass16beginTransactionERKN8particle11SPISettingsE+0xd0>
   d5e54:	68a3      	ldr	r3, [r4, #8]
   d5e56:	4543      	cmp	r3, r8
   d5e58:	d108      	bne.n	d5e6c <_ZN8SPIClass16beginTransactionERKN8particle11SPISettingsE+0x7c>
        bitOrder_ == other.bitOrder_ &&
   d5e5a:	f88d 9020 	strb.w	r9, [sp, #32]
   d5e5e:	f88d 7021 	strb.w	r7, [sp, #33]	; 0x21
   d5e62:	f8bd 2020 	ldrh.w	r2, [sp, #32]
   d5e66:	89a3      	ldrh	r3, [r4, #12]
   d5e68:	429a      	cmp	r2, r3
   d5e6a:	d0e6      	beq.n	d5e3a <_ZN8SPIClass16beginTransactionERKN8particle11SPISettingsE+0x4a>
            uint8_t divisor = 0;
   d5e6c:	2300      	movs	r3, #0
            computeClockDivider((unsigned int)spi_info.system_clock, settings.clock_, divisor,
   d5e6e:	68a1      	ldr	r1, [r4, #8]
            uint8_t divisor = 0;
   d5e70:	f88d 300f 	strb.w	r3, [sp, #15]
            computeClockDivider((unsigned int)spi_info.system_clock, settings.clock_, divisor,
   d5e74:	980a      	ldr	r0, [sp, #40]	; 0x28
   d5e76:	ab04      	add	r3, sp, #16
   d5e78:	f10d 020f 	add.w	r2, sp, #15
   d5e7c:	f7ff ffa2 	bl	d5dc4 <_ZN8SPIClass19computeClockDividerEjjRhRj>
    if (default_ && other.default_)
   d5e80:	7921      	ldrb	r1, [r4, #4]
   d5e82:	b985      	cbnz	r5, d5ea6 <_ZN8SPIClass16beginTransactionERKN8particle11SPISettingsE+0xb6>
    if (default_ == other.default_ &&
   d5e84:	b989      	cbnz	r1, d5eaa <_ZN8SPIClass16beginTransactionERKN8particle11SPISettingsE+0xba>
   d5e86:	68a3      	ldr	r3, [r4, #8]
   d5e88:	4543      	cmp	r3, r8
   d5e8a:	d30e      	bcc.n	d5eaa <_ZN8SPIClass16beginTransactionERKN8particle11SPISettingsE+0xba>
        bitOrder_ == other.bitOrder_ &&
   d5e8c:	f88d 9020 	strb.w	r9, [sp, #32]
   d5e90:	f88d 7021 	strb.w	r7, [sp, #33]	; 0x21
   d5e94:	f8bd 2020 	ldrh.w	r2, [sp, #32]
   d5e98:	89a3      	ldrh	r3, [r4, #12]
   d5e9a:	429a      	cmp	r2, r3
   d5e9c:	d105      	bne.n	d5eaa <_ZN8SPIClass16beginTransactionERKN8particle11SPISettingsE+0xba>
            if (!(spi_settings <= settings && clock == spi_settings.clock_))
   d5e9e:	9b04      	ldr	r3, [sp, #16]
   d5ea0:	4543      	cmp	r3, r8
   d5ea2:	d102      	bne.n	d5eaa <_ZN8SPIClass16beginTransactionERKN8particle11SPISettingsE+0xba>
   d5ea4:	e7c9      	b.n	d5e3a <_ZN8SPIClass16beginTransactionERKN8particle11SPISettingsE+0x4a>
    if (default_ && other.default_)
   d5ea6:	2900      	cmp	r1, #0
   d5ea8:	d1f9      	bne.n	d5e9e <_ZN8SPIClass16beginTransactionERKN8particle11SPISettingsE+0xae>
                hal_spi_set_settings(_spi, settings.default_, divisor, settings.bitOrder_,
   d5eaa:	2300      	movs	r3, #0
   d5eac:	9301      	str	r3, [sp, #4]
   d5eae:	7b63      	ldrb	r3, [r4, #13]
   d5eb0:	9300      	str	r3, [sp, #0]
   d5eb2:	f89d 200f 	ldrb.w	r2, [sp, #15]
   d5eb6:	7b23      	ldrb	r3, [r4, #12]
            hal_spi_set_settings(_spi, settings.default_, 0, 0, 0, nullptr);
   d5eb8:	7830      	ldrb	r0, [r6, #0]
   d5eba:	f7ff fe1d 	bl	d5af8 <hal_spi_set_settings>
   d5ebe:	e7bc      	b.n	d5e3a <_ZN8SPIClass16beginTransactionERKN8particle11SPISettingsE+0x4a>
   d5ec0:	e9cd 5500 	strd	r5, r5, [sp]
   d5ec4:	462b      	mov	r3, r5
   d5ec6:	462a      	mov	r2, r5
   d5ec8:	2101      	movs	r1, #1
   d5eca:	e7f5      	b.n	d5eb8 <_ZN8SPIClass16beginTransactionERKN8particle11SPISettingsE+0xc8>

000d5ecc <_ZN8SPIClass8transferEh>:

    return clock;
}

byte SPIClass::transfer(byte _data)
{
   d5ecc:	b508      	push	{r3, lr}
    return static_cast<byte>(hal_spi_transfer(_spi, _data));
   d5ece:	7800      	ldrb	r0, [r0, #0]
   d5ed0:	f7ff fdf2 	bl	d5ab8 <hal_spi_transfer>
}
   d5ed4:	b2c0      	uxtb	r0, r0
   d5ed6:	bd08      	pop	{r3, pc}

000d5ed8 <_GLOBAL__sub_I_System>:
    return wokenUpByRtc();
}

system_error_t SleepResult::error() const {
    return err_;
   d5ed8:	b510      	push	{r4, lr}
} // namespace particle

// particle::Flag<TagT, ValueT>
template<typename TagT, typename ValueT>
inline particle::Flag<TagT, ValueT>::Flag(ValueT val) :
        val_(val) {
   d5eda:	4b09      	ldr	r3, [pc, #36]	; (d5f00 <_GLOBAL__sub_I_System+0x28>)

class SystemSleepResult {
public:
    SystemSleepResult()
            : wakeupSource_(nullptr),
              error_(SYSTEM_ERROR_NONE) {
   d5edc:	4c09      	ldr	r4, [pc, #36]	; (d5f04 <_GLOBAL__sub_I_System+0x2c>)
   d5ede:	2202      	movs	r2, #2
   d5ee0:	2000      	movs	r0, #0
   d5ee2:	601a      	str	r2, [r3, #0]
    SleepResult() {}
   d5ee4:	4b08      	ldr	r3, [pc, #32]	; (d5f08 <_GLOBAL__sub_I_System+0x30>)
              error_(SYSTEM_ERROR_NONE) {
   d5ee6:	6020      	str	r0, [r4, #0]
   d5ee8:	80a0      	strh	r0, [r4, #4]
    SleepResult() {}
   d5eea:	71a0      	strb	r0, [r4, #6]
   d5eec:	60a3      	str	r3, [r4, #8]

class SystemClass {
public:

    SystemClass(System_Mode_TypeDef mode = DEFAULT) {
        set_system_mode(mode);
   d5eee:	f7ff fe53 	bl	d5b98 <set_system_mode>
SystemClass System;
   d5ef2:	4620      	mov	r0, r4
   d5ef4:	4a05      	ldr	r2, [pc, #20]	; (d5f0c <_GLOBAL__sub_I_System+0x34>)
   d5ef6:	4906      	ldr	r1, [pc, #24]	; (d5f10 <_GLOBAL__sub_I_System+0x38>)
   d5ef8:	e8bd 4010 	ldmia.w	sp!, {r4, lr}
SystemClass System;
   d5efc:	f000 bd2a 	b.w	d6954 <__aeabi_atexit>
   d5f00:	2003e664 	.word	0x2003e664
   d5f04:	2003e658 	.word	0x2003e658
   d5f08:	ffff0000 	.word	0xffff0000
   d5f0c:	2003e5c0 	.word	0x2003e5c0
   d5f10:	000d40c1 	.word	0x000d40c1

000d5f14 <_ZN14RecursiveMutexD1Ev>:
    RecursiveMutex() : handle_(nullptr)
    {
        os_mutex_recursive_create(&handle_);
    }

    ~RecursiveMutex() {
   d5f14:	b510      	push	{r4, lr}
   d5f16:	4604      	mov	r4, r0
        dispose();
    }

    void dispose()
    {
        if (handle_) {
   d5f18:	6800      	ldr	r0, [r0, #0]
   d5f1a:	b108      	cbz	r0, d5f20 <_ZN14RecursiveMutexD1Ev+0xc>
            os_mutex_recursive_destroy(handle_);
   d5f1c:	f7ff fd14 	bl	d5948 <os_mutex_recursive_destroy>
    }
   d5f20:	4620      	mov	r0, r4
   d5f22:	bd10      	pop	{r4, pc}

000d5f24 <_ZNSt14_Function_baseD1Ev>:
	{ __functor._M_access<_Functor*>() = new _Functor(std::move(__f)); }
      };

    _Function_base() : _M_manager(nullptr) { }

    ~_Function_base()
   d5f24:	b510      	push	{r4, lr}
    {
      if (_M_manager)
   d5f26:	6883      	ldr	r3, [r0, #8]
    ~_Function_base()
   d5f28:	4604      	mov	r4, r0
      if (_M_manager)
   d5f2a:	b113      	cbz	r3, d5f32 <_ZNSt14_Function_baseD1Ev+0xe>
	_M_manager(_M_functor, _M_functor, __destroy_functor);
   d5f2c:	2203      	movs	r2, #3
   d5f2e:	4601      	mov	r1, r0
   d5f30:	4798      	blx	r3
    }
   d5f32:	4620      	mov	r0, r4
   d5f34:	bd10      	pop	{r4, pc}
	...

000d5f38 <_GLOBAL__sub_I__ZN8particle3ble13WiringBleLock6mutex_E>:
BleCharacteristic BleLocalDevice::addCharacteristic(EnumFlags<BleCharacteristicProperty> properties, const String& desc, const BleOnDataReceivedStdFunction& callback) {
    WiringBleLock lk;
    return addCharacteristic(properties, desc.c_str(), callback);
}

} /* namespace particle */
   d5f38:	b510      	push	{r4, lr}
    RecursiveMutex() : handle_(nullptr)
   d5f3a:	4c06      	ldr	r4, [pc, #24]	; (d5f54 <_GLOBAL__sub_I__ZN8particle3ble13WiringBleLock6mutex_E+0x1c>)
   d5f3c:	2300      	movs	r3, #0
        os_mutex_recursive_create(&handle_);
   d5f3e:	4620      	mov	r0, r4
    RecursiveMutex() : handle_(nullptr)
   d5f40:	6023      	str	r3, [r4, #0]
        os_mutex_recursive_create(&handle_);
   d5f42:	f7ff fcf9 	bl	d5938 <os_mutex_recursive_create>
RecursiveMutex WiringBleLock::mutex_;
   d5f46:	4620      	mov	r0, r4
   d5f48:	4a03      	ldr	r2, [pc, #12]	; (d5f58 <_GLOBAL__sub_I__ZN8particle3ble13WiringBleLock6mutex_E+0x20>)
   d5f4a:	4904      	ldr	r1, [pc, #16]	; (d5f5c <_GLOBAL__sub_I__ZN8particle3ble13WiringBleLock6mutex_E+0x24>)
} /* namespace particle */
   d5f4c:	e8bd 4010 	ldmia.w	sp!, {r4, lr}
RecursiveMutex WiringBleLock::mutex_;
   d5f50:	f000 bd00 	b.w	d6954 <__aeabi_atexit>
   d5f54:	2003e668 	.word	0x2003e668
   d5f58:	2003e5c0 	.word	0x2003e5c0
   d5f5c:	000d5f15 	.word	0x000d5f15

000d5f60 <_ZN5Print5writeEPKhj>:

// Public Methods //////////////////////////////////////////////////////////////

/* default implementation: may be overridden */
size_t Print::write(const uint8_t *buffer, size_t size)
{
   d5f60:	b5f8      	push	{r3, r4, r5, r6, r7, lr}
   d5f62:	4606      	mov	r6, r0
   d5f64:	460d      	mov	r5, r1
  size_t n = 0;
   d5f66:	188f      	adds	r7, r1, r2
   d5f68:	2400      	movs	r4, #0
  while (size--) {
   d5f6a:	42bd      	cmp	r5, r7
   d5f6c:	d00c      	beq.n	d5f88 <_ZN5Print5writeEPKhj+0x28>
     int chunk = write(*buffer++);
   d5f6e:	6833      	ldr	r3, [r6, #0]
   d5f70:	f815 1b01 	ldrb.w	r1, [r5], #1
   d5f74:	689b      	ldr	r3, [r3, #8]
   d5f76:	4630      	mov	r0, r6
   d5f78:	4798      	blx	r3
     if (chunk>=0)
   d5f7a:	1e03      	subs	r3, r0, #0
   d5f7c:	db01      	blt.n	d5f82 <_ZN5Print5writeEPKhj+0x22>
         n += chunk;
   d5f7e:	441c      	add	r4, r3
  while (size--) {
   d5f80:	e7f3      	b.n	d5f6a <_ZN5Print5writeEPKhj+0xa>
     int chunk = write(*buffer++);
   d5f82:	2c00      	cmp	r4, #0
   d5f84:	bf08      	it	eq
   d5f86:	461c      	moveq	r4, r3
             n = chunk;
         break;
     }
  }
  return n;
}
   d5f88:	4620      	mov	r0, r4
   d5f8a:	bdf8      	pop	{r3, r4, r5, r6, r7, pc}

000d5f8c <_ZN5Print5writeEPKc>:

    int getWriteError() { return write_error; }
    void clearWriteError() { setWriteError(0); }

    virtual size_t write(uint8_t) = 0;
    size_t write(const char *str) {
   d5f8c:	b513      	push	{r0, r1, r4, lr}
   d5f8e:	4604      	mov	r4, r0
      if (str == NULL) return 0;
      return write((const uint8_t *)str, strlen(str));
    }
   d5f90:	4608      	mov	r0, r1
      if (str == NULL) return 0;
   d5f92:	b159      	cbz	r1, d5fac <_ZN5Print5writeEPKc+0x20>
      return write((const uint8_t *)str, strlen(str));
   d5f94:	9101      	str	r1, [sp, #4]
   d5f96:	f000 fd2f 	bl	d69f8 <strlen>
   d5f9a:	6823      	ldr	r3, [r4, #0]
   d5f9c:	9901      	ldr	r1, [sp, #4]
   d5f9e:	68db      	ldr	r3, [r3, #12]
   d5fa0:	4602      	mov	r2, r0
   d5fa2:	4620      	mov	r0, r4
    }
   d5fa4:	b002      	add	sp, #8
   d5fa6:	e8bd 4010 	ldmia.w	sp!, {r4, lr}
      return write((const uint8_t *)str, strlen(str));
   d5faa:	4718      	bx	r3
    }
   d5fac:	b002      	add	sp, #8
   d5fae:	bd10      	pop	{r4, pc}

000d5fb0 <_ZN5Print5printEPKc>:

size_t Print::print(const char str[])
{
   d5fb0:	b508      	push	{r3, lr}
  return write(str);
   d5fb2:	f7ff ffeb 	bl	d5f8c <_ZN5Print5writeEPKc>
}
   d5fb6:	bd08      	pop	{r3, pc}

000d5fb8 <_ZN5Print5printEc>:

size_t Print::print(char c)
{
  return write(c);
   d5fb8:	6803      	ldr	r3, [r0, #0]
   d5fba:	689b      	ldr	r3, [r3, #8]
   d5fbc:	4718      	bx	r3

000d5fbe <_ZN5Print7printlnEv>:
{
  return print(reinterpret_cast<const char*>(str));
}

size_t Print::println(void)
{
   d5fbe:	b538      	push	{r3, r4, r5, lr}
  size_t n = print('\r');
   d5fc0:	210d      	movs	r1, #13
{
   d5fc2:	4605      	mov	r5, r0
  size_t n = print('\r');
   d5fc4:	f7ff fff8 	bl	d5fb8 <_ZN5Print5printEc>
  n += print('\n');
   d5fc8:	210a      	movs	r1, #10
  size_t n = print('\r');
   d5fca:	4604      	mov	r4, r0
  n += print('\n');
   d5fcc:	4628      	mov	r0, r5
   d5fce:	f7ff fff3 	bl	d5fb8 <_ZN5Print5printEc>
  return n;
}
   d5fd2:	4420      	add	r0, r4
   d5fd4:	bd38      	pop	{r3, r4, r5, pc}

000d5fd6 <_ZN5Print7printlnEPKc>:

size_t Print::println(const char c[])
{
   d5fd6:	b538      	push	{r3, r4, r5, lr}
   d5fd8:	4605      	mov	r5, r0
  return write(str);
   d5fda:	f7ff ffd7 	bl	d5f8c <_ZN5Print5writeEPKc>
   d5fde:	4604      	mov	r4, r0
  size_t n = print(c);
  n += println();
   d5fe0:	4628      	mov	r0, r5
   d5fe2:	f7ff ffec 	bl	d5fbe <_ZN5Print7printlnEv>
  return n;
}
   d5fe6:	4420      	add	r0, r4
   d5fe8:	bd38      	pop	{r3, r4, r5, pc}

000d5fea <_ZN5Print11printNumberEmh>:
  return println(reinterpret_cast<const char*>(str));
}

// Private Methods /////////////////////////////////////////////////////////////

size_t Print::printNumber(unsigned long n, uint8_t base) {
   d5fea:	b530      	push	{r4, r5, lr}
   d5fec:	b08b      	sub	sp, #44	; 0x2c
  char buf[8 * sizeof(n) + 1]; // Assumes 8-bit chars plus zero byte.
  char *str = &buf[sizeof(buf) - 1];

  *str = '\0';
   d5fee:	2300      	movs	r3, #0
   d5ff0:	f88d 3024 	strb.w	r3, [sp, #36]	; 0x24

  // prevent crash if called with base == 1
  if (base < 2) base = 10;
   d5ff4:	2a01      	cmp	r2, #1
   d5ff6:	bf98      	it	ls
   d5ff8:	220a      	movls	r2, #10
   d5ffa:	ac09      	add	r4, sp, #36	; 0x24

  do {
   decltype(n) m = n;
   n /= base;
   d5ffc:	460d      	mov	r5, r1
   d5ffe:	fbb1 f1f2 	udiv	r1, r1, r2
   char c = m - base * n;
   d6002:	fb01 5312 	mls	r3, r1, r2, r5
   d6006:	f003 03ff 	and.w	r3, r3, #255	; 0xff
   *--str = c < 10 ? c + '0' : c + 'A' - 10;
   d600a:	2b09      	cmp	r3, #9
   d600c:	bf94      	ite	ls
   d600e:	3330      	addls	r3, #48	; 0x30
   d6010:	3337      	addhi	r3, #55	; 0x37
   d6012:	b2db      	uxtb	r3, r3
  } while(n);
   d6014:	42aa      	cmp	r2, r5
   *--str = c < 10 ? c + '0' : c + 'A' - 10;
   d6016:	f804 3d01 	strb.w	r3, [r4, #-1]!
  } while(n);
   d601a:	d9ef      	bls.n	d5ffc <_ZN5Print11printNumberEmh+0x12>

  return write(str);
   d601c:	4621      	mov	r1, r4
   d601e:	f7ff ffb5 	bl	d5f8c <_ZN5Print5writeEPKc>
}
   d6022:	b00b      	add	sp, #44	; 0x2c
   d6024:	bd30      	pop	{r4, r5, pc}

000d6026 <_ZN5Print7vprintfEbPKcSt9__va_list>:

  return n;
}

size_t Print::vprintf(bool newline, const char* format, va_list args)
{
   d6026:	e92d 41f0 	stmdb	sp!, {r4, r5, r6, r7, r8, lr}
   d602a:	b086      	sub	sp, #24
   d602c:	af00      	add	r7, sp, #0
   d602e:	4605      	mov	r5, r0
   d6030:	460e      	mov	r6, r1
    const int bufsize = 20;
    char test[bufsize];
    va_list args2;
    va_copy(args2, args);
    size_t n = vsnprintf(test, bufsize, format, args);
   d6032:	1d38      	adds	r0, r7, #4
   d6034:	2114      	movs	r1, #20
{
   d6036:	4614      	mov	r4, r2
    va_copy(args2, args);
   d6038:	603b      	str	r3, [r7, #0]
    size_t n = vsnprintf(test, bufsize, format, args);
   d603a:	f7ff fe51 	bl	d5ce0 <vsnprintf>

    if (n<bufsize)
   d603e:	2813      	cmp	r0, #19
   d6040:	d80e      	bhi.n	d6060 <_ZN5Print7vprintfEbPKcSt9__va_list+0x3a>
  return write(str);
   d6042:	1d39      	adds	r1, r7, #4
   d6044:	4628      	mov	r0, r5
   d6046:	f7ff ffa1 	bl	d5f8c <_ZN5Print5writeEPKc>
   d604a:	4604      	mov	r4, r0
    {
        char bigger[n+1];
        n = vsnprintf(bigger, n+1, format, args2);
        n = print(bigger);
    }
    if (newline)
   d604c:	b11e      	cbz	r6, d6056 <_ZN5Print7vprintfEbPKcSt9__va_list+0x30>
        n += println();
   d604e:	4628      	mov	r0, r5
   d6050:	f7ff ffb5 	bl	d5fbe <_ZN5Print7printlnEv>
   d6054:	4404      	add	r4, r0

    va_end(args2);
    return n;
}
   d6056:	4620      	mov	r0, r4
   d6058:	3718      	adds	r7, #24
   d605a:	46bd      	mov	sp, r7
   d605c:	e8bd 81f0 	ldmia.w	sp!, {r4, r5, r6, r7, r8, pc}
        char bigger[n+1];
   d6060:	f100 0308 	add.w	r3, r0, #8
   d6064:	f023 0307 	bic.w	r3, r3, #7
        n = print(bigger);
   d6068:	46e8      	mov	r8, sp
        char bigger[n+1];
   d606a:	ebad 0d03 	sub.w	sp, sp, r3
        n = vsnprintf(bigger, n+1, format, args2);
   d606e:	4622      	mov	r2, r4
   d6070:	1c41      	adds	r1, r0, #1
   d6072:	683b      	ldr	r3, [r7, #0]
   d6074:	4668      	mov	r0, sp
   d6076:	f7ff fe33 	bl	d5ce0 <vsnprintf>
  return write(str);
   d607a:	4669      	mov	r1, sp
   d607c:	4628      	mov	r0, r5
   d607e:	f7ff ff85 	bl	d5f8c <_ZN5Print5writeEPKc>
   d6082:	4604      	mov	r4, r0
   d6084:	46c5      	mov	sp, r8
   d6086:	e7e1      	b.n	d604c <_ZN5Print7vprintfEbPKcSt9__va_list+0x26>

000d6088 <_ZN5spark9WiFiClass2onEv>:
    WiFiClass() :
            NetworkClass(NETWORK_INTERFACE_WIFI_STA) {
    }

    void on(void) {
        network_on(*this, 0, 0, NULL);
   d6088:	2300      	movs	r3, #0
   d608a:	6840      	ldr	r0, [r0, #4]
   d608c:	461a      	mov	r2, r3
   d608e:	4619      	mov	r1, r3
   d6090:	f7ff bdce 	b.w	d5c30 <network_on>

000d6094 <_GLOBAL__sub_I__ZN5spark3LogE>:
    // This handler doesn't support direct logging
}

// spark::Logger
inline spark::Logger::Logger(const char *name) :
        name_(name) {
   d6094:	4b01      	ldr	r3, [pc, #4]	; (d609c <_GLOBAL__sub_I__ZN5spark3LogE+0x8>)
   d6096:	4a02      	ldr	r2, [pc, #8]	; (d60a0 <_GLOBAL__sub_I__ZN5spark3LogE+0xc>)
   d6098:	601a      	str	r2, [r3, #0]
#if Wiring_LogConfig

// spark::
void spark::logProcessControlRequest(ctrl_request* req) {
    JSONRequestHandler::process(req);
}
   d609a:	4770      	bx	lr
   d609c:	2003e66c 	.word	0x2003e66c
   d60a0:	000d75c8 	.word	0x000d75c8

000d60a4 <_GLOBAL__sub_I_TIME_FORMAT_DEFAULT>:
            calendar_time_cache = Convert_UnixTime_To_CalendarTime(unix_time);
            unix_time_cache = unix_time;
    }
}

const char* TimeClass::format_spec = TIME_FORMAT_DEFAULT;
   d60a4:	4b02      	ldr	r3, [pc, #8]	; (d60b0 <_GLOBAL__sub_I_TIME_FORMAT_DEFAULT+0xc>)
   d60a6:	681a      	ldr	r2, [r3, #0]
   d60a8:	4b02      	ldr	r3, [pc, #8]	; (d60b4 <_GLOBAL__sub_I_TIME_FORMAT_DEFAULT+0x10>)
   d60aa:	601a      	str	r2, [r3, #0]
{
  return isValid();
}


TimeClass Time;
   d60ac:	4770      	bx	lr
   d60ae:	bf00      	nop
   d60b0:	2003e558 	.word	0x2003e558
   d60b4:	2003e670 	.word	0x2003e670

000d60b8 <delay>:
    return (value - fromStart) * (toEnd - toStart) / (fromEnd - fromStart) + toStart;
}

void delay(unsigned long ms)
{
    system_delay_ms(ms, false);
   d60b8:	2100      	movs	r1, #0
   d60ba:	f7ff bd75 	b.w	d5ba8 <system_delay_ms>

000d60be <_ZN8RGBClassD1Ev>:
#include "rgbled.h"

typedef void (raw_rgb_change_handler_t)(uint8_t, uint8_t, uint8_t);
typedef std::function<raw_rgb_change_handler_t> wiring_rgb_change_handler_t;

class RGBClass {
   d60be:	b510      	push	{r4, lr}
   d60c0:	4604      	mov	r4, r0
   *  @ingroup functors
   *
   *  Polymorphic function wrapper.
   */
  template<typename _Res, typename... _ArgTypes>
    class function<_Res(_ArgTypes...)>
   d60c2:	f7ff ff2f 	bl	d5f24 <_ZNSt14_Function_baseD1Ev>
   d60c6:	4620      	mov	r0, r4
   d60c8:	bd10      	pop	{r4, pc}
	...

000d60cc <_GLOBAL__sub_I_RGB>:
    _Function_base() : _M_manager(nullptr) { }
   d60cc:	4803      	ldr	r0, [pc, #12]	; (d60dc <_GLOBAL__sub_I_RGB+0x10>)
#include "spark_wiring_rgb.h"
#include "spark_wiring_interrupts.h"

#include "core_hal.h"

RGBClass RGB;
   d60ce:	4a04      	ldr	r2, [pc, #16]	; (d60e0 <_GLOBAL__sub_I_RGB+0x14>)
   d60d0:	4904      	ldr	r1, [pc, #16]	; (d60e4 <_GLOBAL__sub_I_RGB+0x18>)
   d60d2:	2300      	movs	r3, #0
   d60d4:	6083      	str	r3, [r0, #8]
   d60d6:	f000 bc3d 	b.w	d6954 <__aeabi_atexit>
   d60da:	bf00      	nop
   d60dc:	2003e674 	.word	0x2003e674
   d60e0:	2003e5c0 	.word	0x2003e5c0
   d60e4:	000d60bf 	.word	0x000d60bf

000d60e8 <_ZZ21module_user_init_hookENUlP6_reentjmPvE_4_FUNES0_jmS1_>:

void module_user_init_hook()
{
#if HAL_PLATFORM_NEWLIB
    newlib_impure_ptr_callback([](struct _reent* r, size_t size, uint32_t version, void* ctx) -> void {
        _impure_ptr = r;
   d60e8:	4b01      	ldr	r3, [pc, #4]	; (d60f0 <_ZZ21module_user_init_hookENUlP6_reentjmPvE_4_FUNES0_jmS1_+0x8>)
   d60ea:	6018      	str	r0, [r3, #0]
    }, nullptr);
   d60ec:	4770      	bx	lr
   d60ee:	bf00      	nop
   d60f0:	2003e55c 	.word	0x2003e55c

000d60f4 <serialEventRun>:
{
   d60f4:	b508      	push	{r3, lr}
    if (serialEvent && Serial.available()>0)
   d60f6:	4b0b      	ldr	r3, [pc, #44]	; (d6124 <serialEventRun+0x30>)
   d60f8:	b143      	cbz	r3, d610c <serialEventRun+0x18>
   d60fa:	f000 f957 	bl	d63ac <_Z16_fetch_usbserialv>
   d60fe:	6803      	ldr	r3, [r0, #0]
   d6100:	691b      	ldr	r3, [r3, #16]
   d6102:	4798      	blx	r3
   d6104:	2800      	cmp	r0, #0
   d6106:	dd01      	ble.n	d610c <serialEventRun+0x18>
        serialEvent();
   d6108:	f3af 8000 	nop.w
    if (serialEvent1 && Serial1.available()>0)
   d610c:	4b06      	ldr	r3, [pc, #24]	; (d6128 <serialEventRun+0x34>)
   d610e:	b143      	cbz	r3, d6122 <serialEventRun+0x2e>
   d6110:	f000 f9ca 	bl	d64a8 <_Z22__fetch_global_Serial1v>
   d6114:	6803      	ldr	r3, [r0, #0]
   d6116:	691b      	ldr	r3, [r3, #16]
   d6118:	4798      	blx	r3
   d611a:	2800      	cmp	r0, #0
   d611c:	dd01      	ble.n	d6122 <serialEventRun+0x2e>
        serialEvent1();
   d611e:	f3af 8000 	nop.w
}
   d6122:	bd08      	pop	{r3, pc}
	...

000d612c <_post_loop>:
{
   d612c:	b508      	push	{r3, lr}
	serialEventRun();
   d612e:	f7ff ffe1 	bl	d60f4 <serialEventRun>
		return !timeout_fn;
	}

	static inline system_tick_t current_time()
	{
		return HAL_Timer_Get_Milli_Seconds();
   d6132:	f7ff fbe9 	bl	d5908 <HAL_Timer_Get_Milli_Seconds>
	/**
	 * Lifesign that the application is still working normally.
	 */
	static void checkin()
	{
		last_checkin = current_time();
   d6136:	4b01      	ldr	r3, [pc, #4]	; (d613c <_post_loop+0x10>)
   d6138:	6018      	str	r0, [r3, #0]
}
   d613a:	bd08      	pop	{r3, pc}
   d613c:	2003e7d4 	.word	0x2003e7d4

000d6140 <_Z33system_initialize_user_backup_ramv>:
    memcpy(&link_global_retained_start, &link_global_retained_initial_values, len);
   d6140:	4802      	ldr	r0, [pc, #8]	; (d614c <_Z33system_initialize_user_backup_ramv+0xc>)
   d6142:	4a03      	ldr	r2, [pc, #12]	; (d6150 <_Z33system_initialize_user_backup_ramv+0x10>)
   d6144:	4903      	ldr	r1, [pc, #12]	; (d6154 <_Z33system_initialize_user_backup_ramv+0x14>)
   d6146:	1a12      	subs	r2, r2, r0
   d6148:	f000 bc1c 	b.w	d6984 <memcpy>
   d614c:	2003f400 	.word	0x2003f400
   d6150:	2003f404 	.word	0x2003f404
   d6154:	000d7730 	.word	0x000d7730

000d6158 <_Z27ctrl_request_custom_handlerP12ctrl_request>:
void __attribute((weak)) ctrl_request_custom_handler(ctrl_request* req) {
   d6158:	b507      	push	{r0, r1, r2, lr}
    system_ctrl_set_result(req, SYSTEM_ERROR_NOT_SUPPORTED, nullptr, nullptr, nullptr);
   d615a:	2300      	movs	r3, #0
   d615c:	9300      	str	r3, [sp, #0]
   d615e:	461a      	mov	r2, r3
   d6160:	f06f 0177 	mvn.w	r1, #119	; 0x77
   d6164:	f7ff fd3a 	bl	d5bdc <system_ctrl_set_result>
}
   d6168:	b003      	add	sp, #12
   d616a:	f85d fb04 	ldr.w	pc, [sp], #4
	...

000d6170 <_ZL20ctrl_request_handlerP12ctrl_request>:
static void ctrl_request_handler(ctrl_request* req) {
   d6170:	b507      	push	{r0, r1, r2, lr}
    switch (req->type) {
   d6172:	8843      	ldrh	r3, [r0, #2]
   d6174:	2b0a      	cmp	r3, #10
   d6176:	d008      	beq.n	d618a <_ZL20ctrl_request_handlerP12ctrl_request+0x1a>
   d6178:	2b50      	cmp	r3, #80	; 0x50
   d617a:	d10b      	bne.n	d6194 <_ZL20ctrl_request_handlerP12ctrl_request+0x24>
        if (log_process_ctrl_request_callback) {
   d617c:	4b09      	ldr	r3, [pc, #36]	; (d61a4 <_ZL20ctrl_request_handlerP12ctrl_request+0x34>)
   d617e:	681b      	ldr	r3, [r3, #0]
   d6180:	b14b      	cbz	r3, d6196 <_ZL20ctrl_request_handlerP12ctrl_request+0x26>
}
   d6182:	b003      	add	sp, #12
   d6184:	f85d eb04 	ldr.w	lr, [sp], #4
            log_process_ctrl_request_callback(req);
   d6188:	4718      	bx	r3
        ctrl_request_custom_handler(req);
   d618a:	f7ff ffe5 	bl	d6158 <_Z27ctrl_request_custom_handlerP12ctrl_request>
}
   d618e:	b003      	add	sp, #12
   d6190:	f85d fb04 	ldr.w	pc, [sp], #4
        system_ctrl_set_result(req, SYSTEM_ERROR_NOT_SUPPORTED, nullptr, nullptr, nullptr);
   d6194:	2300      	movs	r3, #0
   d6196:	9300      	str	r3, [sp, #0]
   d6198:	461a      	mov	r2, r3
   d619a:	f06f 0177 	mvn.w	r1, #119	; 0x77
   d619e:	f7ff fd1d 	bl	d5bdc <system_ctrl_set_result>
}
   d61a2:	e7f4      	b.n	d618e <_ZL20ctrl_request_handlerP12ctrl_request+0x1e>
   d61a4:	2003e688 	.word	0x2003e688

000d61a8 <module_user_init_hook>:
{
   d61a8:	b538      	push	{r3, r4, r5, lr}
#endif // HAL_PLATFORM_NEWLIB

#if HAL_PLATFORM_BACKUP_RAM
    backup_ram_was_valid_ =  __backup_sram_signature==signature;
   d61aa:	4c12      	ldr	r4, [pc, #72]	; (d61f4 <module_user_init_hook+0x4c>)
    newlib_impure_ptr_callback([](struct _reent* r, size_t size, uint32_t version, void* ctx) -> void {
   d61ac:	4812      	ldr	r0, [pc, #72]	; (d61f8 <module_user_init_hook+0x50>)
    backup_ram_was_valid_ =  __backup_sram_signature==signature;
   d61ae:	4d13      	ldr	r5, [pc, #76]	; (d61fc <module_user_init_hook+0x54>)
    newlib_impure_ptr_callback([](struct _reent* r, size_t size, uint32_t version, void* ctx) -> void {
   d61b0:	2100      	movs	r1, #0
   d61b2:	f7ff fd9d 	bl	d5cf0 <newlib_impure_ptr_callback>
    backup_ram_was_valid_ =  __backup_sram_signature==signature;
   d61b6:	6823      	ldr	r3, [r4, #0]
   d61b8:	42ab      	cmp	r3, r5
   d61ba:	4b11      	ldr	r3, [pc, #68]	; (d6200 <module_user_init_hook+0x58>)
   d61bc:	bf0c      	ite	eq
   d61be:	2201      	moveq	r2, #1
   d61c0:	2200      	movne	r2, #0
   d61c2:	701a      	strb	r2, [r3, #0]
    if (!backup_ram_was_valid_) {
   d61c4:	d002      	beq.n	d61cc <module_user_init_hook+0x24>
        system_initialize_user_backup_ram();
   d61c6:	f7ff ffbb 	bl	d6140 <_Z33system_initialize_user_backup_ramv>
        __backup_sram_signature = signature;
   d61ca:	6025      	str	r5, [r4, #0]
    }
#endif

#if HAL_PLATFORM_RNG
    // Initialize the default stdlib PRNG using hardware RNG as a seed
    const uint32_t seed = HAL_RNG_GetRandomNumber();
   d61cc:	f7ff fb8c 	bl	d58e8 <HAL_RNG_GetRandomNumber>
   d61d0:	4604      	mov	r4, r0
    srand(seed);
   d61d2:	f000 fbed 	bl	d69b0 <srand>

    // If the user defines random_seed_from_cloud, call it with a seed value
    // generated by a hardware RNG as well.
    if (random_seed_from_cloud) {
   d61d6:	4b0b      	ldr	r3, [pc, #44]	; (d6204 <module_user_init_hook+0x5c>)
   d61d8:	b113      	cbz	r3, d61e0 <module_user_init_hook+0x38>
        random_seed_from_cloud(seed);
   d61da:	4620      	mov	r0, r4
   d61dc:	f3af 8000 	nop.w
    }
#endif
    // Register the random_seed_from_cloud handler
    spark_set_random_seed_from_cloud_handler(&random_seed_from_cloud, nullptr);
   d61e0:	2100      	movs	r1, #0
   d61e2:	4808      	ldr	r0, [pc, #32]	; (d6204 <module_user_init_hook+0x5c>)
   d61e4:	f7ff fd64 	bl	d5cb0 <spark_set_random_seed_from_cloud_handler>

    // Register application handler for the control requests
    system_ctrl_set_app_request_handler(ctrl_request_handler, nullptr);
}
   d61e8:	e8bd 4038 	ldmia.w	sp!, {r3, r4, r5, lr}
    system_ctrl_set_app_request_handler(ctrl_request_handler, nullptr);
   d61ec:	4806      	ldr	r0, [pc, #24]	; (d6208 <module_user_init_hook+0x60>)
   d61ee:	2100      	movs	r1, #0
   d61f0:	f7ff bcea 	b.w	d5bc8 <system_ctrl_set_app_request_handler>
   d61f4:	2003f400 	.word	0x2003f400
   d61f8:	000d60e9 	.word	0x000d60e9
   d61fc:	9a271c1e 	.word	0x9a271c1e
   d6200:	2003e684 	.word	0x2003e684
   d6204:	00000000 	.word	0x00000000
   d6208:	000d6171 	.word	0x000d6171

000d620c <_ZN9IPAddressD1Ev>:
    IPAddress(uint32_t address);
    // 4 bytes defining the IP address in network order
    IPAddress(const uint8_t* address);
    IPAddress(const HAL_IPAddress& address);

    virtual ~IPAddress() {}
   d620c:	4770      	bx	lr

000d620e <_ZN9IPAddressD0Ev>:
   d620e:	b510      	push	{r4, lr}
   d6210:	2118      	movs	r1, #24
   d6212:	4604      	mov	r4, r0
   d6214:	f000 fba3 	bl	d695e <_ZdlPvj>
   d6218:	4620      	mov	r0, r4
   d621a:	bd10      	pop	{r4, pc}

000d621c <_ZNK9IPAddress7printToER5Print>:
#endif // Wiring_IPv6
	return address.ipv4==that.address.ipv4;
}

size_t IPAddress::printTo(Print& p) const
{
   d621c:	b5f0      	push	{r4, r5, r6, r7, lr}
#if Wiring_IPv6
#if HAL_USE_INET_HAL_POSIX
	if (address.v==6) {
   d621e:	7d03      	ldrb	r3, [r0, #20]
   d6220:	2b06      	cmp	r3, #6
{
   d6222:	b08d      	sub	sp, #52	; 0x34
   d6224:	460e      	mov	r6, r1
   d6226:	f100 0704 	add.w	r7, r0, #4
   d622a:	f04f 0400 	mov.w	r4, #0
	if (address.v==6) {
   d622e:	d012      	beq.n	d6256 <_ZNK9IPAddress7printToER5Print+0x3a>
   d6230:	f100 0508 	add.w	r5, r0, #8
            val = n;
        }
#if __GNUC__ >= 9
#pragma GCC diagnostic pop
#endif // __GNUC__ >= 9
        return printNumber(val, base) + t;
   d6234:	f815 1d01 	ldrb.w	r1, [r5, #-1]!
   d6238:	220a      	movs	r2, #10
   d623a:	4630      	mov	r0, r6
   d623c:	f7ff fed5 	bl	d5fea <_ZN5Print11printNumberEmh>
#else
#pragma message "HAL_USE_INET_HAL_POSIX is required for IPv6 support in IPAddress::printTo()"
#endif // HAL_USE_INET_HAL_POSIX
#endif // Wiring_IPv6
    size_t n = 0;
    for (int i = 0; i < 4; i++)
   d6240:	42af      	cmp	r7, r5
    {
        if (n)
            n += p.print('.');
        n += p.print((*this)[i], DEC);
   d6242:	4404      	add	r4, r0
    for (int i = 0; i < 4; i++)
   d6244:	d019      	beq.n	d627a <_ZNK9IPAddress7printToER5Print+0x5e>
        if (n)
   d6246:	2c00      	cmp	r4, #0
   d6248:	d0f4      	beq.n	d6234 <_ZNK9IPAddress7printToER5Print+0x18>
            n += p.print('.');
   d624a:	212e      	movs	r1, #46	; 0x2e
   d624c:	4630      	mov	r0, r6
   d624e:	f7ff feb3 	bl	d5fb8 <_ZN5Print5printEc>
   d6252:	4404      	add	r4, r0
   d6254:	e7ee      	b.n	d6234 <_ZNK9IPAddress7printToER5Print+0x18>
		inet_inet_ntop(AF_INET6, address.ipv6, buf, sizeof(buf));
   d6256:	232f      	movs	r3, #47	; 0x2f
   d6258:	466a      	mov	r2, sp
   d625a:	4639      	mov	r1, r7
   d625c:	200a      	movs	r0, #10
		buf[0] = 0;
   d625e:	f88d 4000 	strb.w	r4, [sp]
		inet_inet_ntop(AF_INET6, address.ipv6, buf, sizeof(buf));
   d6262:	f7ff fb79 	bl	d5958 <inet_inet_ntop>
      return write((const uint8_t *)str, strlen(str));
   d6266:	4668      	mov	r0, sp
   d6268:	f000 fbc6 	bl	d69f8 <strlen>
   d626c:	6833      	ldr	r3, [r6, #0]
   d626e:	4602      	mov	r2, r0
   d6270:	68db      	ldr	r3, [r3, #12]
   d6272:	4669      	mov	r1, sp
   d6274:	4630      	mov	r0, r6
   d6276:	4798      	blx	r3
   d6278:	4604      	mov	r4, r0
    }
    return n;
}
   d627a:	4620      	mov	r0, r4
   d627c:	b00d      	add	sp, #52	; 0x34
   d627e:	bdf0      	pop	{r4, r5, r6, r7, pc}

000d6280 <_ZN9IPAddressC1Ev>:
IPAddress::IPAddress()
   d6280:	b510      	push	{r4, lr}
   d6282:	4b05      	ldr	r3, [pc, #20]	; (d6298 <_ZN9IPAddressC1Ev+0x18>)
   d6284:	4604      	mov	r4, r0
        return address;
    }

    virtual size_t printTo(Print& p) const;

    void clear() { memset(&address, 0, sizeof (address)); }
   d6286:	2211      	movs	r2, #17
   d6288:	f840 3b04 	str.w	r3, [r0], #4
   d628c:	2100      	movs	r1, #0
   d628e:	f000 fb87 	bl	d69a0 <memset>
}
   d6292:	4620      	mov	r0, r4
   d6294:	bd10      	pop	{r4, pc}
   d6296:	bf00      	nop
   d6298:	000d75f0 	.word	0x000d75f0

000d629c <_ZN9IPAddressC1ERK16_HAL_IPAddress_t>:
IPAddress::IPAddress(const HAL_IPAddress& address)
   d629c:	4603      	mov	r3, r0
   d629e:	4a07      	ldr	r2, [pc, #28]	; (d62bc <_ZN9IPAddressC1ERK16_HAL_IPAddress_t+0x20>)
   d62a0:	b510      	push	{r4, lr}
   d62a2:	f843 2b04 	str.w	r2, [r3], #4
    memcpy(&this->address, &address, sizeof(address));
   d62a6:	f101 0210 	add.w	r2, r1, #16
   d62aa:	f851 4b04 	ldr.w	r4, [r1], #4
   d62ae:	f843 4b04 	str.w	r4, [r3], #4
   d62b2:	4291      	cmp	r1, r2
   d62b4:	d1f9      	bne.n	d62aa <_ZN9IPAddressC1ERK16_HAL_IPAddress_t+0xe>
   d62b6:	780a      	ldrb	r2, [r1, #0]
   d62b8:	701a      	strb	r2, [r3, #0]
}
   d62ba:	bd10      	pop	{r4, pc}
   d62bc:	000d75f0 	.word	0x000d75f0

000d62c0 <_ZN9IPAddress8set_ipv4Ehhhh>:
{
   d62c0:	b510      	push	{r4, lr}
    address.ipv4 = b0<<24 | b1 << 16 | b2 << 8 | b3;
   d62c2:	f89d 4008 	ldrb.w	r4, [sp, #8]
   d62c6:	ea44 2303 	orr.w	r3, r4, r3, lsl #8
   d62ca:	ea43 4202 	orr.w	r2, r3, r2, lsl #16
   d62ce:	ea42 6101 	orr.w	r1, r2, r1, lsl #24
        address.v = version;
   d62d2:	2304      	movs	r3, #4
   d62d4:	6041      	str	r1, [r0, #4]
   d62d6:	7503      	strb	r3, [r0, #20]
}
   d62d8:	bd10      	pop	{r4, pc}
	...

000d62dc <_ZN9IPAddressC1EPKh>:
IPAddress::IPAddress(const uint8_t* addr)
   d62dc:	b513      	push	{r0, r1, r4, lr}
   d62de:	4b05      	ldr	r3, [pc, #20]	; (d62f4 <_ZN9IPAddressC1EPKh+0x18>)
   d62e0:	6003      	str	r3, [r0, #0]
    set_ipv4(addr[0], addr[1], addr[2], addr[3]);
   d62e2:	78cb      	ldrb	r3, [r1, #3]
   d62e4:	9300      	str	r3, [sp, #0]
   d62e6:	788b      	ldrb	r3, [r1, #2]
   d62e8:	784a      	ldrb	r2, [r1, #1]
   d62ea:	7809      	ldrb	r1, [r1, #0]
   d62ec:	f7ff ffe8 	bl	d62c0 <_ZN9IPAddress8set_ipv4Ehhhh>
}
   d62f0:	b002      	add	sp, #8
   d62f2:	bd10      	pop	{r4, pc}
   d62f4:	000d75f0 	.word	0x000d75f0

000d62f8 <_ZN9USBSerial14blockOnOverrunEb>:
  HAL_USB_USART_Flush_Data(_serial);
}

void USBSerial::blockOnOverrun(bool block)
{
  _blocking = block;
   d62f8:	7441      	strb	r1, [r0, #17]
}
   d62fa:	4770      	bx	lr

000d62fc <_ZN9USBSerialD1Ev>:
#include "usb_hal.h"
#include "system_task.h"
#include "spark_wiring_startup.h"
#include "concurrent_hal.h"

class USBSerial : public Stream
   d62fc:	4770      	bx	lr

000d62fe <_ZN9USBSerial4readEv>:
{
   d62fe:	b508      	push	{r3, lr}
	return std::max(-1, (int)HAL_USB_USART_Receive_Data(_serial, false));
   d6300:	2100      	movs	r1, #0
   d6302:	7c00      	ldrb	r0, [r0, #16]
   d6304:	f7ff fc28 	bl	d5b58 <HAL_USB_USART_Receive_Data>
}
   d6308:	ea40 70e0 	orr.w	r0, r0, r0, asr #31
   d630c:	bd08      	pop	{r3, pc}

000d630e <_ZN9USBSerial4peekEv>:

int USBSerial::peek()
{
   d630e:	b508      	push	{r3, lr}
	return std::max(-1, (int)HAL_USB_USART_Receive_Data(_serial, true));
   d6310:	2101      	movs	r1, #1
   d6312:	7c00      	ldrb	r0, [r0, #16]
   d6314:	f7ff fc20 	bl	d5b58 <HAL_USB_USART_Receive_Data>
}
   d6318:	ea40 70e0 	orr.w	r0, r0, r0, asr #31
   d631c:	bd08      	pop	{r3, pc}

000d631e <_ZN9USBSerial17availableForWriteEv>:
{
   d631e:	b508      	push	{r3, lr}
  return std::max(0, (int)HAL_USB_USART_Available_Data_For_Write(_serial));
   d6320:	7c00      	ldrb	r0, [r0, #16]
   d6322:	f7ff fc11 	bl	d5b48 <HAL_USB_USART_Available_Data_For_Write>
}
   d6326:	ea20 70e0 	bic.w	r0, r0, r0, asr #31
   d632a:	bd08      	pop	{r3, pc}

000d632c <_ZN9USBSerial9availableEv>:
{
   d632c:	b508      	push	{r3, lr}
	return std::max(0, (int)HAL_USB_USART_Available_Data(_serial));
   d632e:	7c00      	ldrb	r0, [r0, #16]
   d6330:	f7ff fc02 	bl	d5b38 <HAL_USB_USART_Available_Data>
}
   d6334:	ea20 70e0 	bic.w	r0, r0, r0, asr #31
   d6338:	bd08      	pop	{r3, pc}

000d633a <_ZN9USBSerial5writeEh>:
{
   d633a:	b513      	push	{r0, r1, r4, lr}
   d633c:	4604      	mov	r4, r0
  if (HAL_USB_USART_Available_Data_For_Write(_serial) > 0 || _blocking) {
   d633e:	7c00      	ldrb	r0, [r0, #16]
{
   d6340:	9101      	str	r1, [sp, #4]
  if (HAL_USB_USART_Available_Data_For_Write(_serial) > 0 || _blocking) {
   d6342:	f7ff fc01 	bl	d5b48 <HAL_USB_USART_Available_Data_For_Write>
   d6346:	2800      	cmp	r0, #0
   d6348:	9901      	ldr	r1, [sp, #4]
   d634a:	dc01      	bgt.n	d6350 <_ZN9USBSerial5writeEh+0x16>
   d634c:	7c60      	ldrb	r0, [r4, #17]
   d634e:	b120      	cbz	r0, d635a <_ZN9USBSerial5writeEh+0x20>
    return std::max(0, (int)HAL_USB_USART_Send_Data(_serial, byte));
   d6350:	7c20      	ldrb	r0, [r4, #16]
   d6352:	f7ff fc09 	bl	d5b68 <HAL_USB_USART_Send_Data>
   d6356:	ea20 70e0 	bic.w	r0, r0, r0, asr #31
}
   d635a:	b002      	add	sp, #8
   d635c:	bd10      	pop	{r4, pc}

000d635e <_ZN9USBSerial5flushEv>:
  HAL_USB_USART_Flush_Data(_serial);
   d635e:	7c00      	ldrb	r0, [r0, #16]
   d6360:	f7ff bc0a 	b.w	d5b78 <HAL_USB_USART_Flush_Data>

000d6364 <_ZN9USBSerialD0Ev>:
   d6364:	b510      	push	{r4, lr}
   d6366:	2114      	movs	r1, #20
   d6368:	4604      	mov	r4, r0
   d636a:	f000 faf8 	bl	d695e <_ZdlPvj>
   d636e:	4620      	mov	r0, r4
   d6370:	bd10      	pop	{r4, pc}
	...

000d6374 <_ZN9USBSerialC1E20HAL_USB_USART_SerialRK20HAL_USB_USART_Config>:
USBSerial::USBSerial(HAL_USB_USART_Serial serial, const HAL_USB_USART_Config& conf)
   d6374:	b510      	push	{r4, lr}
    virtual int available() = 0;
    virtual int read() = 0;
    virtual int peek() = 0;
    virtual void flush() = 0;

    Stream() {_timeout=1000;}
   d6376:	f44f 737a 	mov.w	r3, #1000	; 0x3e8
   d637a:	4604      	mov	r4, r0
   d637c:	4608      	mov	r0, r1
   d637e:	2100      	movs	r1, #0
   d6380:	e9c4 1301 	strd	r1, r3, [r4, #4]
   d6384:	4b04      	ldr	r3, [pc, #16]	; (d6398 <_ZN9USBSerialC1E20HAL_USB_USART_SerialRK20HAL_USB_USART_Config+0x24>)
   d6386:	6023      	str	r3, [r4, #0]
  _blocking = true;
   d6388:	2301      	movs	r3, #1
  _serial = serial;
   d638a:	7420      	strb	r0, [r4, #16]
  _blocking = true;
   d638c:	7463      	strb	r3, [r4, #17]
  HAL_USB_USART_Init(_serial, &conf);
   d638e:	4611      	mov	r1, r2
   d6390:	f7ff fbca 	bl	d5b28 <HAL_USB_USART_Init>
}
   d6394:	4620      	mov	r0, r4
   d6396:	bd10      	pop	{r4, pc}
   d6398:	000d7604 	.word	0x000d7604

000d639c <_Z19acquireSerialBufferv>:

// Preinstantiate Objects //////////////////////////////////////////////////////
#ifdef SPARK_USB_SERIAL

HAL_USB_USART_Config __attribute__((weak)) acquireSerialBuffer()
{
   d639c:	b510      	push	{r4, lr}
  HAL_USB_USART_Config conf = {0};
   d639e:	2214      	movs	r2, #20
{
   d63a0:	4604      	mov	r4, r0
  HAL_USB_USART_Config conf = {0};
   d63a2:	2100      	movs	r1, #0
   d63a4:	f000 fafc 	bl	d69a0 <memset>
  conf.rx_buffer_size = USB_RX_BUFFER_SIZE;
  conf.tx_buffer_size = USB_TX_BUFFER_SIZE;
#endif

  return conf;
}
   d63a8:	4620      	mov	r0, r4
   d63aa:	bd10      	pop	{r4, pc}

000d63ac <_Z16_fetch_usbserialv>:

USBSerial& _fetch_usbserial()
{
   d63ac:	b510      	push	{r4, lr}
  HAL_USB_USART_Config conf = acquireSerialBuffer();
	static USBSerial _usbserial(HAL_USB_USART_SERIAL, conf);
   d63ae:	4c10      	ldr	r4, [pc, #64]	; (d63f0 <_Z16_fetch_usbserialv+0x44>)
{
   d63b0:	b088      	sub	sp, #32
  HAL_USB_USART_Config conf = acquireSerialBuffer();
   d63b2:	a803      	add	r0, sp, #12
   d63b4:	f7ff fff2 	bl	d639c <_Z19acquireSerialBufferv>
	static USBSerial _usbserial(HAL_USB_USART_SERIAL, conf);
   d63b8:	7821      	ldrb	r1, [r4, #0]
   d63ba:	f3bf 8f5b 	dmb	ish
   d63be:	f011 0101 	ands.w	r1, r1, #1
   d63c2:	d111      	bne.n	d63e8 <_Z16_fetch_usbserialv+0x3c>
   d63c4:	4620      	mov	r0, r4
   d63c6:	9101      	str	r1, [sp, #4]
   d63c8:	f7fd fe72 	bl	d40b0 <__cxa_guard_acquire>
   d63cc:	9901      	ldr	r1, [sp, #4]
   d63ce:	b158      	cbz	r0, d63e8 <_Z16_fetch_usbserialv+0x3c>
   d63d0:	aa03      	add	r2, sp, #12
   d63d2:	4808      	ldr	r0, [pc, #32]	; (d63f4 <_Z16_fetch_usbserialv+0x48>)
   d63d4:	f7ff ffce 	bl	d6374 <_ZN9USBSerialC1E20HAL_USB_USART_SerialRK20HAL_USB_USART_Config>
   d63d8:	4620      	mov	r0, r4
   d63da:	f7fd fe6e 	bl	d40ba <__cxa_guard_release>
   d63de:	4a06      	ldr	r2, [pc, #24]	; (d63f8 <_Z16_fetch_usbserialv+0x4c>)
   d63e0:	4906      	ldr	r1, [pc, #24]	; (d63fc <_Z16_fetch_usbserialv+0x50>)
   d63e2:	4804      	ldr	r0, [pc, #16]	; (d63f4 <_Z16_fetch_usbserialv+0x48>)
   d63e4:	f000 fab6 	bl	d6954 <__aeabi_atexit>
	return _usbserial;
}
   d63e8:	4802      	ldr	r0, [pc, #8]	; (d63f4 <_Z16_fetch_usbserialv+0x48>)
   d63ea:	b008      	add	sp, #32
   d63ec:	bd10      	pop	{r4, pc}
   d63ee:	bf00      	nop
   d63f0:	2003e68c 	.word	0x2003e68c
   d63f4:	2003e690 	.word	0x2003e690
   d63f8:	2003e5c0 	.word	0x2003e5c0
   d63fc:	000d62fd 	.word	0x000d62fd

000d6400 <_ZN11USARTSerialD1Ev>:
private:
  hal_usart_interface_t _serial;
  bool _blocking;
public:
  USARTSerial(hal_usart_interface_t serial, hal_usart_ring_buffer_t *rx_buffer, hal_usart_ring_buffer_t *tx_buffer);
  virtual ~USARTSerial() {};
   d6400:	4770      	bx	lr

000d6402 <_ZN11USARTSerial14blockOnOverrunEb>:
    hal_usart_half_duplex(_serial, Enable);
}

void USARTSerial::blockOnOverrun(bool block)
{
  _blocking = block;
   d6402:	7441      	strb	r1, [r0, #17]
}
   d6404:	4770      	bx	lr

000d6406 <_ZN11USARTSerial17availableForWriteEv>:


int USARTSerial::availableForWrite(void)
{
   d6406:	b508      	push	{r3, lr}
  return std::max(0, (int)hal_usart_available_data_for_write(_serial));
   d6408:	7c00      	ldrb	r0, [r0, #16]
   d640a:	f7ff fae5 	bl	d59d8 <hal_usart_available_data_for_write>
}
   d640e:	ea20 70e0 	bic.w	r0, r0, r0, asr #31
   d6412:	bd08      	pop	{r3, pc}

000d6414 <_ZN11USARTSerial9availableEv>:

int USARTSerial::available(void)
{
   d6414:	b508      	push	{r3, lr}
  return std::max(0, (int)hal_usart_available(_serial));
   d6416:	7c00      	ldrb	r0, [r0, #16]
   d6418:	f7ff fab6 	bl	d5988 <hal_usart_available>
}
   d641c:	ea20 70e0 	bic.w	r0, r0, r0, asr #31
   d6420:	bd08      	pop	{r3, pc}

000d6422 <_ZN11USARTSerial4peekEv>:

int USARTSerial::peek(void)
{
   d6422:	b508      	push	{r3, lr}
  return std::max(-1, (int)hal_usart_peek(_serial));
   d6424:	7c00      	ldrb	r0, [r0, #16]
   d6426:	f7ff fabf 	bl	d59a8 <hal_usart_peek>
}
   d642a:	ea40 70e0 	orr.w	r0, r0, r0, asr #31
   d642e:	bd08      	pop	{r3, pc}

000d6430 <_ZN11USARTSerial4readEv>:

int USARTSerial::read(void)
{
   d6430:	b508      	push	{r3, lr}
  return std::max(-1, (int)hal_usart_read(_serial));
   d6432:	7c00      	ldrb	r0, [r0, #16]
   d6434:	f7ff fab0 	bl	d5998 <hal_usart_read>
}
   d6438:	ea40 70e0 	orr.w	r0, r0, r0, asr #31
   d643c:	bd08      	pop	{r3, pc}

000d643e <_ZN11USARTSerial5flushEv>:

void USARTSerial::flush()
{
  hal_usart_flush(_serial);
   d643e:	7c00      	ldrb	r0, [r0, #16]
   d6440:	f7ff baba 	b.w	d59b8 <hal_usart_flush>

000d6444 <_ZN11USARTSerial5writeEh>:
}

size_t USARTSerial::write(uint8_t c)
{
   d6444:	b537      	push	{r0, r1, r2, r4, r5, lr}
  // attempt a write if blocking, or for non-blocking if there is room.
  if (_blocking || hal_usart_available_data_for_write(_serial) > 0) {
   d6446:	7c45      	ldrb	r5, [r0, #17]
{
   d6448:	4604      	mov	r4, r0
  if (_blocking || hal_usart_available_data_for_write(_serial) > 0) {
   d644a:	b12d      	cbz	r5, d6458 <_ZN11USARTSerial5writeEh+0x14>
    // the HAL always blocks.
	  return hal_usart_write(_serial, c);
   d644c:	7c20      	ldrb	r0, [r4, #16]
  }
  return 0;
}
   d644e:	b003      	add	sp, #12
   d6450:	e8bd 4030 	ldmia.w	sp!, {r4, r5, lr}
	  return hal_usart_write(_serial, c);
   d6454:	f7ff ba90 	b.w	d5978 <hal_usart_write>
  if (_blocking || hal_usart_available_data_for_write(_serial) > 0) {
   d6458:	7c00      	ldrb	r0, [r0, #16]
   d645a:	9101      	str	r1, [sp, #4]
   d645c:	f7ff fabc 	bl	d59d8 <hal_usart_available_data_for_write>
   d6460:	2800      	cmp	r0, #0
   d6462:	9901      	ldr	r1, [sp, #4]
   d6464:	dcf2      	bgt.n	d644c <_ZN11USARTSerial5writeEh+0x8>
}
   d6466:	4628      	mov	r0, r5
   d6468:	b003      	add	sp, #12
   d646a:	bd30      	pop	{r4, r5, pc}

000d646c <_ZN11USARTSerialD0Ev>:
   d646c:	b510      	push	{r4, lr}
   d646e:	2114      	movs	r1, #20
   d6470:	4604      	mov	r4, r0
   d6472:	f000 fa74 	bl	d695e <_ZdlPvj>
   d6476:	4620      	mov	r0, r4
   d6478:	bd10      	pop	{r4, pc}
	...

000d647c <_ZN11USARTSerialC1E21hal_usart_interface_tP23hal_usart_ring_buffer_tS2_>:
USARTSerial::USARTSerial(hal_usart_interface_t serial, hal_usart_ring_buffer_t *rx_buffer, hal_usart_ring_buffer_t *tx_buffer)
   d647c:	b510      	push	{r4, lr}
   d647e:	f04f 0c00 	mov.w	ip, #0
   d6482:	4604      	mov	r4, r0
   d6484:	4608      	mov	r0, r1
   d6486:	4611      	mov	r1, r2
   d6488:	f44f 727a 	mov.w	r2, #1000	; 0x3e8
   d648c:	e9c4 c201 	strd	ip, r2, [r4, #4]
   d6490:	4a04      	ldr	r2, [pc, #16]	; (d64a4 <_ZN11USARTSerialC1E21hal_usart_interface_tP23hal_usart_ring_buffer_tS2_+0x28>)
   d6492:	6022      	str	r2, [r4, #0]
  _blocking = true;
   d6494:	2201      	movs	r2, #1
  _serial = serial;
   d6496:	7420      	strb	r0, [r4, #16]
  _blocking = true;
   d6498:	7462      	strb	r2, [r4, #17]
  hal_usart_init(serial, rx_buffer, tx_buffer);
   d649a:	461a      	mov	r2, r3
   d649c:	f7ff fa64 	bl	d5968 <hal_usart_init>
}
   d64a0:	4620      	mov	r0, r4
   d64a2:	bd10      	pop	{r4, pc}
   d64a4:	000d7634 	.word	0x000d7634

000d64a8 <_Z22__fetch_global_Serial1v>:
static hal_usart_ring_buffer_t* serial1_rx_buffer = nullptr;
static hal_usart_ring_buffer_t* serial1_tx_buffer = nullptr;
#endif

USARTSerial& __fetch_global_Serial1()
{
   d64a8:	b513      	push	{r0, r1, r4, lr}
#if ((MODULE_FUNCTION == MOD_FUNC_USER_PART) || (MODULE_FUNCTION == MOD_FUNC_MONO_FIRMWARE))
	static USARTSerial serial1(HAL_USART_SERIAL1, &serial1_rx_buffer, &serial1_tx_buffer);
   d64aa:	4c0e      	ldr	r4, [pc, #56]	; (d64e4 <_Z22__fetch_global_Serial1v+0x3c>)
   d64ac:	7821      	ldrb	r1, [r4, #0]
   d64ae:	f3bf 8f5b 	dmb	ish
   d64b2:	f011 0101 	ands.w	r1, r1, #1
   d64b6:	d112      	bne.n	d64de <_Z22__fetch_global_Serial1v+0x36>
   d64b8:	4620      	mov	r0, r4
   d64ba:	9101      	str	r1, [sp, #4]
   d64bc:	f7fd fdf8 	bl	d40b0 <__cxa_guard_acquire>
   d64c0:	9901      	ldr	r1, [sp, #4]
   d64c2:	b160      	cbz	r0, d64de <_Z22__fetch_global_Serial1v+0x36>
   d64c4:	4a08      	ldr	r2, [pc, #32]	; (d64e8 <_Z22__fetch_global_Serial1v+0x40>)
   d64c6:	4b09      	ldr	r3, [pc, #36]	; (d64ec <_Z22__fetch_global_Serial1v+0x44>)
   d64c8:	4809      	ldr	r0, [pc, #36]	; (d64f0 <_Z22__fetch_global_Serial1v+0x48>)
   d64ca:	f7ff ffd7 	bl	d647c <_ZN11USARTSerialC1E21hal_usart_interface_tP23hal_usart_ring_buffer_tS2_>
   d64ce:	4620      	mov	r0, r4
   d64d0:	f7fd fdf3 	bl	d40ba <__cxa_guard_release>
   d64d4:	4a07      	ldr	r2, [pc, #28]	; (d64f4 <_Z22__fetch_global_Serial1v+0x4c>)
   d64d6:	4908      	ldr	r1, [pc, #32]	; (d64f8 <_Z22__fetch_global_Serial1v+0x50>)
   d64d8:	4805      	ldr	r0, [pc, #20]	; (d64f0 <_Z22__fetch_global_Serial1v+0x48>)
   d64da:	f000 fa3b 	bl	d6954 <__aeabi_atexit>
    serial1_tx_buffer = new hal_usart_ring_buffer_t();
  }
  static USARTSerial serial1(HAL_USART_SERIAL1, serial1_rx_buffer, serial1_tx_buffer);
#endif
	return serial1;
}
   d64de:	4804      	ldr	r0, [pc, #16]	; (d64f0 <_Z22__fetch_global_Serial1v+0x48>)
   d64e0:	b002      	add	sp, #8
   d64e2:	bd10      	pop	{r4, pc}
   d64e4:	2003e6a4 	.word	0x2003e6a4
   d64e8:	2003e6a8 	.word	0x2003e6a8
   d64ec:	2003e72c 	.word	0x2003e72c
   d64f0:	2003e7b0 	.word	0x2003e7b0
   d64f4:	2003e5c0 	.word	0x2003e5c0
   d64f8:	000d6401 	.word	0x000d6401

000d64fc <_ZN7TwoWireD1Ev>:
private:
  hal_i2c_interface_t _i2c;

public:
  TwoWire(hal_i2c_interface_t i2c, const hal_i2c_config_t& config);
  virtual ~TwoWire() {};
   d64fc:	4770      	bx	lr

000d64fe <_ZN7TwoWire5writeEPKhj>:

// must be called in:
// slave tx event callback
// or after beginTransmission(address)
size_t TwoWire::write(const uint8_t *data, size_t quantity)
{
   d64fe:	b5f8      	push	{r3, r4, r5, r6, r7, lr}
   d6500:	4606      	mov	r6, r0
   d6502:	4615      	mov	r5, r2
   d6504:	460c      	mov	r4, r1
   d6506:	188f      	adds	r7, r1, r2
  // in master/slave transmitter mode
  for(size_t i = 0; i < quantity; ++i)
   d6508:	42bc      	cmp	r4, r7
   d650a:	d006      	beq.n	d651a <_ZN7TwoWire5writeEPKhj+0x1c>
  {
    write(data[i]);
   d650c:	6833      	ldr	r3, [r6, #0]
   d650e:	f814 1b01 	ldrb.w	r1, [r4], #1
   d6512:	689b      	ldr	r3, [r3, #8]
   d6514:	4630      	mov	r0, r6
   d6516:	4798      	blx	r3
  for(size_t i = 0; i < quantity; ++i)
   d6518:	e7f6      	b.n	d6508 <_ZN7TwoWire5writeEPKhj+0xa>
  }

  return quantity;
}
   d651a:	4628      	mov	r0, r5
   d651c:	bdf8      	pop	{r3, r4, r5, r6, r7, pc}

000d651e <_ZN7TwoWire5writeEh>:
  return hal_i2c_write(_i2c, data, NULL);
   d651e:	7c00      	ldrb	r0, [r0, #16]
   d6520:	2200      	movs	r2, #0
   d6522:	f7ff ba81 	b.w	d5a28 <hal_i2c_write>

000d6526 <_ZN7TwoWire9availableEv>:
// must be called in:
// slave rx event callback
// or after requestFrom(address, numBytes)
int TwoWire::available(void)
{
  return hal_i2c_available(_i2c, NULL);
   d6526:	7c00      	ldrb	r0, [r0, #16]
   d6528:	2100      	movs	r1, #0
   d652a:	f7ff ba85 	b.w	d5a38 <hal_i2c_available>

000d652e <_ZN7TwoWire4readEv>:
// must be called in:
// slave rx event callback
// or after requestFrom(address, numBytes)
int TwoWire::read(void)
{
  return hal_i2c_read(_i2c, NULL);
   d652e:	7c00      	ldrb	r0, [r0, #16]
   d6530:	2100      	movs	r1, #0
   d6532:	f7ff ba89 	b.w	d5a48 <hal_i2c_read>

000d6536 <_ZN7TwoWire4peekEv>:
// must be called in:
// slave rx event callback
// or after requestFrom(address, numBytes)
int TwoWire::peek(void)
{
  return hal_i2c_peek(_i2c, NULL);
   d6536:	7c00      	ldrb	r0, [r0, #16]
   d6538:	2100      	movs	r1, #0
   d653a:	f7ff ba8d 	b.w	d5a58 <hal_i2c_peek>

000d653e <_ZN7TwoWire5flushEv>:
}

void TwoWire::flush(void)
{
  hal_i2c_flush(_i2c, NULL);
   d653e:	7c00      	ldrb	r0, [r0, #16]
   d6540:	2100      	movs	r1, #0
   d6542:	f7ff ba91 	b.w	d5a68 <hal_i2c_flush>

000d6546 <_ZN7TwoWireD0Ev>:
   d6546:	b510      	push	{r4, lr}
   d6548:	2114      	movs	r1, #20
   d654a:	4604      	mov	r4, r0
   d654c:	f000 fa07 	bl	d695e <_ZdlPvj>
   d6550:	4620      	mov	r0, r4
   d6552:	bd10      	pop	{r4, pc}

000d6554 <_ZN7TwoWireC1E19hal_i2c_interface_tRK16hal_i2c_config_t>:
TwoWire::TwoWire(hal_i2c_interface_t i2c, const hal_i2c_config_t& conf)
   d6554:	b510      	push	{r4, lr}
   d6556:	f44f 737a 	mov.w	r3, #1000	; 0x3e8
   d655a:	4604      	mov	r4, r0
   d655c:	4608      	mov	r0, r1
   d655e:	2100      	movs	r1, #0
   d6560:	e9c4 1301 	strd	r1, r3, [r4, #4]
   d6564:	4b03      	ldr	r3, [pc, #12]	; (d6574 <_ZN7TwoWireC1E19hal_i2c_interface_tRK16hal_i2c_config_t+0x20>)
   d6566:	6023      	str	r3, [r4, #0]
  _i2c = i2c;
   d6568:	7420      	strb	r0, [r4, #16]
  hal_i2c_init(_i2c, &conf);
   d656a:	4611      	mov	r1, r2
   d656c:	f7ff fa8c 	bl	d5a88 <hal_i2c_init>
}
   d6570:	4620      	mov	r0, r4
   d6572:	bd10      	pop	{r4, pc}
   d6574:	000d7664 	.word	0x000d7664

000d6578 <_ZN7TwoWire8setSpeedEm>:
  hal_i2c_set_speed(_i2c, clockSpeed, NULL);
   d6578:	7c00      	ldrb	r0, [r0, #16]
   d657a:	2200      	movs	r2, #0
   d657c:	f7ff ba34 	b.w	d59e8 <hal_i2c_set_speed>

000d6580 <_ZN7TwoWire5beginEv>:
	hal_i2c_begin(_i2c, I2C_MODE_MASTER, 0x00, NULL);
   d6580:	2300      	movs	r3, #0
   d6582:	7c00      	ldrb	r0, [r0, #16]
   d6584:	461a      	mov	r2, r3
   d6586:	4619      	mov	r1, r3
   d6588:	f7ff ba36 	b.w	d59f8 <hal_i2c_begin>

000d658c <_ZN7TwoWire11requestFromERK16WireTransmission>:
size_t TwoWire::requestFrom(const WireTransmission& transfer) {
   d658c:	b57f      	push	{r0, r1, r2, r3, r4, r5, r6, lr}
    hal_i2c_transmission_config_t conf = {
   d658e:	2200      	movs	r2, #0
   d6590:	2314      	movs	r3, #20
   d6592:	e9cd 2201 	strd	r2, r2, [sp, #4]
   d6596:	f8ad 3004 	strh.w	r3, [sp, #4]
    };
   d659a:	780b      	ldrb	r3, [r1, #0]
   d659c:	f88d 3008 	strb.w	r3, [sp, #8]
   d65a0:	684b      	ldr	r3, [r1, #4]
   d65a2:	9303      	str	r3, [sp, #12]
   d65a4:	68cb      	ldr	r3, [r1, #12]
   d65a6:	9304      	str	r3, [sp, #16]
  return hal_i2c_request_ex(_i2c, &conf, nullptr);
   d65a8:	7c00      	ldrb	r0, [r0, #16]
      .flags = (uint32_t)(stop_ ? HAL_I2C_TRANSMISSION_FLAG_STOP : 0)
   d65aa:	7a0b      	ldrb	r3, [r1, #8]
   d65ac:	9305      	str	r3, [sp, #20]
   d65ae:	a901      	add	r1, sp, #4
   d65b0:	f7ff fa72 	bl	d5a98 <hal_i2c_request_ex>
}
   d65b4:	b007      	add	sp, #28
   d65b6:	f85d fb04 	ldr.w	pc, [sp], #4

000d65ba <_ZN7TwoWire11requestFromEhjh>:
{
   d65ba:	b51f      	push	{r0, r1, r2, r3, r4, lr}
  return requestFrom(WireTransmission(address).quantity(quantity).stop(sendStop));
   d65bc:	3b00      	subs	r3, #0
        timeout_{HAL_I2C_DEFAULT_TIMEOUT_MS} {
   d65be:	f88d 1000 	strb.w	r1, [sp]
   d65c2:	f04f 0164 	mov.w	r1, #100	; 0x64
   d65c6:	9103      	str	r1, [sp, #12]
   d65c8:	bf18      	it	ne
   d65ca:	2301      	movne	r3, #1
   d65cc:	4669      	mov	r1, sp
    size_ = size;
   d65ce:	9201      	str	r2, [sp, #4]
   d65d0:	f88d 3008 	strb.w	r3, [sp, #8]
   d65d4:	f7ff ffda 	bl	d658c <_ZN7TwoWire11requestFromERK16WireTransmission>
}
   d65d8:	b005      	add	sp, #20
   d65da:	f85d fb04 	ldr.w	pc, [sp], #4

000d65de <_ZN7TwoWire11requestFromEhj>:
  return requestFrom(address, quantity, (uint8_t)true);
   d65de:	2301      	movs	r3, #1
   d65e0:	f7ff bfeb 	b.w	d65ba <_ZN7TwoWire11requestFromEhjh>

000d65e4 <_ZN7TwoWire17beginTransmissionEh>:
	hal_i2c_begin_transmission(_i2c, address, NULL);
   d65e4:	7c00      	ldrb	r0, [r0, #16]
   d65e6:	2200      	movs	r2, #0
   d65e8:	f7ff ba0e 	b.w	d5a08 <hal_i2c_begin_transmission>

000d65ec <_ZN7TwoWire17beginTransmissionEi>:
  beginTransmission((uint8_t)address);
   d65ec:	b2c9      	uxtb	r1, r1
   d65ee:	f7ff bff9 	b.w	d65e4 <_ZN7TwoWire17beginTransmissionEh>

000d65f2 <_ZN7TwoWire15endTransmissionEh>:
	return hal_i2c_end_transmission(_i2c, sendStop, NULL);
   d65f2:	7c00      	ldrb	r0, [r0, #16]
   d65f4:	2200      	movs	r2, #0
   d65f6:	f7ff ba0f 	b.w	d5a18 <hal_i2c_end_transmission>

000d65fa <_ZN7TwoWire15endTransmissionEv>:
  return endTransmission(true);
   d65fa:	2101      	movs	r1, #1
   d65fc:	f7ff bff9 	b.w	d65f2 <_ZN7TwoWire15endTransmissionEh>

000d6600 <_ZN5spark9WiFiClass5readyEv>:
    bool connecting(void) {
        return network_connecting(*this, 0, NULL);
    }

    bool ready(void) {
        return network_ready(*this, 0, NULL);
   d6600:	2200      	movs	r2, #0
   d6602:	6840      	ldr	r0, [r0, #4]
   d6604:	4611      	mov	r1, r2
   d6606:	f7ff bb0b 	b.w	d5c20 <network_ready>

000d660a <_ZN5spark9WiFiClass9listeningEv>:
    uint16_t getListenTimeout(void) {
        return network_get_listen_timeout(*this, 0, NULL);
    }

    bool listening(void) {
        return network_listening(*this, 0, NULL);
   d660a:	2200      	movs	r2, #0
   d660c:	6840      	ldr	r0, [r0, #4]
   d660e:	4611      	mov	r1, r2
   d6610:	f7ff bb26 	b.w	d5c60 <network_listening>

000d6614 <_ZN5spark9WiFiClass16getListenTimeoutEv>:
        return network_get_listen_timeout(*this, 0, NULL);
   d6614:	2200      	movs	r2, #0
   d6616:	6840      	ldr	r0, [r0, #4]
   d6618:	4611      	mov	r1, r2
   d661a:	f7ff bb31 	b.w	d5c80 <network_get_listen_timeout>

000d661e <_ZN5spark9WiFiClass16setListenTimeoutEt>:
        network_set_listen_timeout(*this, timeout, NULL);
   d661e:	6840      	ldr	r0, [r0, #4]
   d6620:	2200      	movs	r2, #0
   d6622:	f7ff bb25 	b.w	d5c70 <network_set_listen_timeout>

000d6626 <_ZN5spark9WiFiClass6listenEb>:
        network_listen(*this, begin ? 0 : 1, NULL);
   d6626:	6840      	ldr	r0, [r0, #4]
   d6628:	2200      	movs	r2, #0
   d662a:	f081 0101 	eor.w	r1, r1, #1
   d662e:	f7ff bb0f 	b.w	d5c50 <network_listen>

000d6632 <_ZN5spark9WiFiClass3offEv>:
        network_off(*this, 0, 0, NULL);
   d6632:	2300      	movs	r3, #0
   d6634:	6840      	ldr	r0, [r0, #4]
   d6636:	461a      	mov	r2, r3
   d6638:	4619      	mov	r1, r3
   d663a:	f7ff bb01 	b.w	d5c40 <network_off>

000d663e <_ZN5spark9WiFiClass10connectingEv>:
        return network_connecting(*this, 0, NULL);
   d663e:	2200      	movs	r2, #0
   d6640:	6840      	ldr	r0, [r0, #4]
   d6642:	4611      	mov	r1, r2
   d6644:	f7ff badc 	b.w	d5c00 <network_connecting>

000d6648 <_ZN5spark9WiFiClass10disconnectEv>:
        network_disconnect(*this, NETWORK_DISCONNECT_REASON_USER, NULL);
   d6648:	6840      	ldr	r0, [r0, #4]
   d664a:	2200      	movs	r2, #0
   d664c:	2102      	movs	r1, #2
   d664e:	f7ff badf 	b.w	d5c10 <network_disconnect>

000d6652 <_ZN5spark9WiFiClass7connectEj>:
        network_connect(*this, flags, 0, NULL);
   d6652:	2300      	movs	r3, #0
   d6654:	6840      	ldr	r0, [r0, #4]
   d6656:	461a      	mov	r2, r3
   d6658:	f7ff baca 	b.w	d5bf0 <network_connect>

000d665c <_GLOBAL__sub_I__ZN10WiFiSignalC2ERK21wlan_connected_info_t>:
   d665c:	4b02      	ldr	r3, [pc, #8]	; (d6668 <_GLOBAL__sub_I__ZN10WiFiSignalC2ERK21wlan_connected_info_t+0xc>)
   d665e:	2204      	movs	r2, #4
   d6660:	605a      	str	r2, [r3, #4]
            NetworkClass(NETWORK_INTERFACE_WIFI_STA) {
   d6662:	4a02      	ldr	r2, [pc, #8]	; (d666c <_GLOBAL__sub_I__ZN10WiFiSignalC2ERK21wlan_connected_info_t+0x10>)
   d6664:	601a      	str	r2, [r3, #0]
the same way.
*****************************************************************************/

    WiFiClass WiFi;
    // NetworkClass& Network = WiFi;
}
   d6666:	4770      	bx	lr
   d6668:	2003e7c4 	.word	0x2003e7c4
   d666c:	000d768c 	.word	0x000d768c

000d6670 <_ZN5spark12NetworkClass7connectEj>:
        return Network;
    }
}

void NetworkClass::connect(unsigned flags) {
    network_connect(*this, flags, 0, nullptr);
   d6670:	2300      	movs	r3, #0
   d6672:	6840      	ldr	r0, [r0, #4]
   d6674:	461a      	mov	r2, r3
   d6676:	f7ff babb 	b.w	d5bf0 <network_connect>

000d667a <_ZN5spark12NetworkClass10disconnectEv>:
}

void NetworkClass::disconnect() {
    network_disconnect(*this, NETWORK_DISCONNECT_REASON_USER, nullptr);
   d667a:	6840      	ldr	r0, [r0, #4]
   d667c:	2200      	movs	r2, #0
   d667e:	2102      	movs	r1, #2
   d6680:	f7ff bac6 	b.w	d5c10 <network_disconnect>

000d6684 <_ZN5spark12NetworkClass10connectingEv>:
}

bool NetworkClass::connecting() {
    return network_connecting(*this, 0, nullptr);
   d6684:	2200      	movs	r2, #0
   d6686:	6840      	ldr	r0, [r0, #4]
   d6688:	4611      	mov	r1, r2
   d668a:	f7ff bab9 	b.w	d5c00 <network_connecting>

000d668e <_ZN5spark12NetworkClass5readyEv>:
}

bool NetworkClass::ready() {
    return network_ready(*this, 0, nullptr);
   d668e:	2200      	movs	r2, #0
   d6690:	6840      	ldr	r0, [r0, #4]
   d6692:	4611      	mov	r1, r2
   d6694:	f7ff bac4 	b.w	d5c20 <network_ready>

000d6698 <_ZN5spark12NetworkClass2onEv>:
}

void NetworkClass::on() {
    network_on(*this, 0, 0, nullptr);
   d6698:	2300      	movs	r3, #0
   d669a:	6840      	ldr	r0, [r0, #4]
   d669c:	461a      	mov	r2, r3
   d669e:	4619      	mov	r1, r3
   d66a0:	f7ff bac6 	b.w	d5c30 <network_on>

000d66a4 <_ZN5spark12NetworkClass3offEv>:
}

void NetworkClass::off() {
    network_off(*this, 0, 0, nullptr);
   d66a4:	2300      	movs	r3, #0
   d66a6:	6840      	ldr	r0, [r0, #4]
   d66a8:	461a      	mov	r2, r3
   d66aa:	4619      	mov	r1, r3
   d66ac:	f7ff bac8 	b.w	d5c40 <network_off>

000d66b0 <_ZN5spark12NetworkClass4isOnEv>:
}

bool NetworkClass::isOn() {
    return network_is_on(*this, nullptr);
   d66b0:	6840      	ldr	r0, [r0, #4]
   d66b2:	2100      	movs	r1, #0
   d66b4:	f7ff baec 	b.w	d5c90 <network_is_on>

000d66b8 <_ZN5spark12NetworkClass5isOffEv>:
}

bool NetworkClass::isOff() {
    return network_is_off(*this, nullptr);
   d66b8:	6840      	ldr	r0, [r0, #4]
   d66ba:	2100      	movs	r1, #0
   d66bc:	f7ff baf0 	b.w	d5ca0 <network_is_off>

000d66c0 <_ZN5spark12NetworkClass6listenEb>:
}

void NetworkClass::listen(bool begin) {
    network_listen(*this, begin ? 0 : 1, nullptr);
   d66c0:	6840      	ldr	r0, [r0, #4]
   d66c2:	2200      	movs	r2, #0
   d66c4:	f081 0101 	eor.w	r1, r1, #1
   d66c8:	f7ff bac2 	b.w	d5c50 <network_listen>

000d66cc <_ZN5spark12NetworkClass16setListenTimeoutEt>:
}

void NetworkClass::setListenTimeout(uint16_t timeout) {
    network_set_listen_timeout(*this, timeout, nullptr);
   d66cc:	6840      	ldr	r0, [r0, #4]
   d66ce:	2200      	movs	r2, #0
   d66d0:	f7ff bace 	b.w	d5c70 <network_set_listen_timeout>

000d66d4 <_ZN5spark12NetworkClass16getListenTimeoutEv>:
}

uint16_t NetworkClass::getListenTimeout() {
    return network_get_listen_timeout(*this, 0, nullptr);
   d66d4:	2200      	movs	r2, #0
   d66d6:	6840      	ldr	r0, [r0, #4]
   d66d8:	4611      	mov	r1, r2
   d66da:	f7ff bad1 	b.w	d5c80 <network_get_listen_timeout>

000d66de <_ZN5spark12NetworkClass9listeningEv>:
}

bool NetworkClass::listening() {
    return network_listening(*this, 0, nullptr);
   d66de:	2200      	movs	r2, #0
   d66e0:	6840      	ldr	r0, [r0, #4]
   d66e2:	4611      	mov	r1, r2
   d66e4:	f7ff babc 	b.w	d5c60 <network_listening>

000d66e8 <_ZN5spark12NetworkClass7resolveEPKc>:
}

IPAddress NetworkClass::resolve(const char* name) {
   d66e8:	e92d 43f0 	stmdb	sp!, {r4, r5, r6, r7, r8, r9, lr}
    IPAddress addr;
#if HAL_USE_INET_HAL_POSIX
    struct addrinfo *ai = nullptr;
   d66ec:	2400      	movs	r4, #0
IPAddress NetworkClass::resolve(const char* name) {
   d66ee:	b095      	sub	sp, #84	; 0x54
   d66f0:	4616      	mov	r6, r2
   d66f2:	460d      	mov	r5, r1
   d66f4:	4607      	mov	r7, r0
    IPAddress addr;
   d66f6:	f7ff fdc3 	bl	d6280 <_ZN9IPAddressC1Ev>
    struct addrinfo hints = {};
   d66fa:	4621      	mov	r1, r4
   d66fc:	2218      	movs	r2, #24
   d66fe:	a80e      	add	r0, sp, #56	; 0x38
    struct addrinfo *ai = nullptr;
   d6700:	9400      	str	r4, [sp, #0]
    struct addrinfo hints = {};
   d6702:	f000 f94d 	bl	d69a0 <memset>
    hints.ai_flags = AI_ADDRCONFIG;
   d6706:	2340      	movs	r3, #64	; 0x40
    hints.ai_family = AF_UNSPEC;
   d6708:	e9cd 340c 	strd	r3, r4, [sp, #48]	; 0x30
    const int r = getaddrinfo(name, nullptr, &hints, &ai);
   d670c:	4621      	mov	r1, r4
   d670e:	466b      	mov	r3, sp
   d6710:	aa0c      	add	r2, sp, #48	; 0x30
   d6712:	4630      	mov	r0, r6
   d6714:	f7ff f8c0 	bl	d5898 <netdb_getaddrinfo>
    if (!r) {
   d6718:	4604      	mov	r4, r0
   d671a:	2800      	cmp	r0, #0
   d671c:	d14c      	bne.n	d67b8 <_ZN5spark12NetworkClass7resolveEPKc+0xd0>
        bool ok = false;
        // This is not really needed if AI_ADDRCONFIG is properly supported
        bool ipv4 = network_ready(*this, NETWORK_READY_TYPE_IPV4, nullptr);
   d671e:	4602      	mov	r2, r0
   d6720:	2101      	movs	r1, #1
   d6722:	6868      	ldr	r0, [r5, #4]
   d6724:	f7ff fa7c 	bl	d5c20 <network_ready>
        bool ipv6 = network_ready(*this, NETWORK_READY_TYPE_IPV6, nullptr);
   d6728:	2102      	movs	r1, #2
        bool ipv4 = network_ready(*this, NETWORK_READY_TYPE_IPV4, nullptr);
   d672a:	4680      	mov	r8, r0
        bool ipv6 = network_ready(*this, NETWORK_READY_TYPE_IPV6, nullptr);
   d672c:	4622      	mov	r2, r4
   d672e:	6868      	ldr	r0, [r5, #4]
   d6730:	f7ff fa76 	bl	d5c20 <network_ready>
        for (auto cur = ai; cur != nullptr && !ok; cur = cur->ai_next) {
   d6734:	9e00      	ldr	r6, [sp, #0]
        bool ipv6 = network_ready(*this, NETWORK_READY_TYPE_IPV6, nullptr);
   d6736:	4681      	mov	r9, r0
        bool ok = false;
   d6738:	4621      	mov	r1, r4
        for (auto cur = ai; cur != nullptr && !ok; cur = cur->ai_next) {
   d673a:	2e00      	cmp	r6, #0
   d673c:	d03c      	beq.n	d67b8 <_ZN5spark12NetworkClass7resolveEPKc+0xd0>
   d673e:	2900      	cmp	r1, #0
   d6740:	d13a      	bne.n	d67b8 <_ZN5spark12NetworkClass7resolveEPKc+0xd0>
            // NOTE: using only the first entry that matches the current state of IPv4/IPv6 connectivity
            switch (cur->ai_family) {
   d6742:	6873      	ldr	r3, [r6, #4]
   d6744:	2b02      	cmp	r3, #2
   d6746:	d003      	beq.n	d6750 <_ZN5spark12NetworkClass7resolveEPKc+0x68>
   d6748:	2b0a      	cmp	r3, #10
   d674a:	d011      	beq.n	d6770 <_ZN5spark12NetworkClass7resolveEPKc+0x88>
        for (auto cur = ai; cur != nullptr && !ok; cur = cur->ai_next) {
   d674c:	69f6      	ldr	r6, [r6, #28]
   d674e:	e7f4      	b.n	d673a <_ZN5spark12NetworkClass7resolveEPKc+0x52>
                case AF_INET: {
                    if (!ipv4) {
   d6750:	f1b8 0f00 	cmp.w	r8, #0
   d6754:	d00a      	beq.n	d676c <_ZN5spark12NetworkClass7resolveEPKc+0x84>
                        continue;
                    }
                    // NOTE: HAL_IPAddress is little-endian
                    auto in = (struct sockaddr_in*)cur->ai_addr;
                    addr = (const uint8_t*)(&in->sin_addr.s_addr);
   d6756:	6971      	ldr	r1, [r6, #20]
        return *this = IPAddress(address);
   d6758:	a806      	add	r0, sp, #24
   d675a:	3104      	adds	r1, #4
class IPAddress : public Printable {
   d675c:	ad07      	add	r5, sp, #28
        return *this = IPAddress(address);
   d675e:	f7ff fdbd 	bl	d62dc <_ZN9IPAddressC1EPKh>
class IPAddress : public Printable {
   d6762:	cd0f      	ldmia	r5!, {r0, r1, r2, r3}
   d6764:	1d3c      	adds	r4, r7, #4
   d6766:	c40f      	stmia	r4!, {r0, r1, r2, r3}
   d6768:	682b      	ldr	r3, [r5, #0]
   d676a:	7023      	strb	r3, [r4, #0]
    virtual ~IPAddress() {}
   d676c:	4641      	mov	r1, r8
   d676e:	e7ed      	b.n	d674c <_ZN5spark12NetworkClass7resolveEPKc+0x64>
                    ok = true;
                    break;
                }
                case AF_INET6: {
                    if (!ipv6) {
   d6770:	f1b9 0f00 	cmp.w	r9, #0
   d6774:	d101      	bne.n	d677a <_ZN5spark12NetworkClass7resolveEPKc+0x92>
                    auto in6 = (struct sockaddr_in6*)cur->ai_addr;
                    HAL_IPAddress a = {};
                    a.v = 6;
                    memcpy(a.ipv6, in6->sin6_addr.s6_addr, sizeof(a.ipv6));
                    addr = IPAddress(a);
                    ok = true;
   d6776:	4649      	mov	r1, r9
   d6778:	e7e8      	b.n	d674c <_ZN5spark12NetworkClass7resolveEPKc+0x64>
                    auto in6 = (struct sockaddr_in6*)cur->ai_addr;
   d677a:	6974      	ldr	r4, [r6, #20]
                    HAL_IPAddress a = {};
   d677c:	2210      	movs	r2, #16
   d677e:	a801      	add	r0, sp, #4
   d6780:	f000 f90e 	bl	d69a0 <memset>
                    a.v = 6;
   d6784:	2306      	movs	r3, #6
   d6786:	f88d 3014 	strb.w	r3, [sp, #20]
                    memcpy(a.ipv6, in6->sin6_addr.s6_addr, sizeof(a.ipv6));
   d678a:	ad01      	add	r5, sp, #4
   d678c:	f104 0308 	add.w	r3, r4, #8
   d6790:	3418      	adds	r4, #24
   d6792:	6818      	ldr	r0, [r3, #0]
   d6794:	6859      	ldr	r1, [r3, #4]
   d6796:	462a      	mov	r2, r5
   d6798:	c203      	stmia	r2!, {r0, r1}
   d679a:	3308      	adds	r3, #8
   d679c:	42a3      	cmp	r3, r4
   d679e:	4615      	mov	r5, r2
   d67a0:	d1f7      	bne.n	d6792 <_ZN5spark12NetworkClass7resolveEPKc+0xaa>
                    addr = IPAddress(a);
   d67a2:	a901      	add	r1, sp, #4
   d67a4:	a806      	add	r0, sp, #24
class IPAddress : public Printable {
   d67a6:	ad07      	add	r5, sp, #28
   d67a8:	f7ff fd78 	bl	d629c <_ZN9IPAddressC1ERK16_HAL_IPAddress_t>
   d67ac:	cd0f      	ldmia	r5!, {r0, r1, r2, r3}
   d67ae:	1d3c      	adds	r4, r7, #4
   d67b0:	c40f      	stmia	r4!, {r0, r1, r2, r3}
   d67b2:	682b      	ldr	r3, [r5, #0]
   d67b4:	7023      	strb	r3, [r4, #0]
   d67b6:	e7de      	b.n	d6776 <_ZN5spark12NetworkClass7resolveEPKc+0x8e>
                    break;
                }
            }
        }
    }
    freeaddrinfo(ai);
   d67b8:	9800      	ldr	r0, [sp, #0]
   d67ba:	f7ff f865 	bl	d5888 <netdb_freeaddrinfo>
    return Cellular.resolve(name);
#endif // Wiring_Cellular

#endif // HAL_USE_INET_HAL_POSIX
    return addr;
}
   d67be:	4638      	mov	r0, r7
   d67c0:	b015      	add	sp, #84	; 0x54
   d67c2:	e8bd 83f0 	ldmia.w	sp!, {r4, r5, r6, r7, r8, r9, pc}
	...

000d67c8 <_GLOBAL__sub_I__ZN5spark7NetworkE>:
   d67c8:	4b02      	ldr	r3, [pc, #8]	; (d67d4 <_GLOBAL__sub_I__ZN5spark7NetworkE+0xc>)
   d67ca:	4a03      	ldr	r2, [pc, #12]	; (d67d8 <_GLOBAL__sub_I__ZN5spark7NetworkE+0x10>)
   d67cc:	601a      	str	r2, [r3, #0]
   d67ce:	2200      	movs	r2, #0
   d67d0:	605a      	str	r2, [r3, #4]

} // spark
   d67d2:	4770      	bx	lr
   d67d4:	2003e7cc 	.word	0x2003e7cc
   d67d8:	000d76c8 	.word	0x000d76c8

000d67dc <pinAvailable>:
/*
 * @brief Perform safety check on desired pin to see if it's already
 * being used.  Return 0 if used, otherwise return 1 if available.
 */
bool pinAvailable(uint16_t pin) {
  if (pin >= TOTAL_PINS) {
   d67dc:	2823      	cmp	r0, #35	; 0x23
bool pinAvailable(uint16_t pin) {
   d67de:	b513      	push	{r0, r1, r4, lr}
  if (pin >= TOTAL_PINS) {
   d67e0:	d902      	bls.n	d67e8 <pinAvailable+0xc>
    return false;
   d67e2:	2000      	movs	r0, #0
    return false; // 'pin' is used
  }
#endif

  return true; // 'pin' is available
}
   d67e4:	b002      	add	sp, #8
   d67e6:	bd10      	pop	{r4, pc}
  if((pin == SCK || pin == MOSI || pin == MISO) && hal_spi_is_enabled(SPI.interface()) == true)
   d67e8:	f1a0 030b 	sub.w	r3, r0, #11
   d67ec:	2b02      	cmp	r3, #2
   d67ee:	d81a      	bhi.n	d6826 <pinAvailable+0x4a>

template <hal_spi_interface_t Interface>
class SpiProxy {
public:
    static SPIClass& instance() {
        static SPIClass instance(Interface);
   d67f0:	4c17      	ldr	r4, [pc, #92]	; (d6850 <pinAvailable+0x74>)
   d67f2:	7821      	ldrb	r1, [r4, #0]
   d67f4:	f3bf 8f5b 	dmb	ish
   d67f8:	f011 0101 	ands.w	r1, r1, #1
   d67fc:	d10b      	bne.n	d6816 <pinAvailable+0x3a>
   d67fe:	4620      	mov	r0, r4
   d6800:	9101      	str	r1, [sp, #4]
   d6802:	f7fd fc55 	bl	d40b0 <__cxa_guard_acquire>
   d6806:	9901      	ldr	r1, [sp, #4]
   d6808:	b128      	cbz	r0, d6816 <pinAvailable+0x3a>
   d680a:	4812      	ldr	r0, [pc, #72]	; (d6854 <pinAvailable+0x78>)
   d680c:	f7ff fabc 	bl	d5d88 <_ZN8SPIClassC1E19hal_spi_interface_t>
   d6810:	4620      	mov	r0, r4
   d6812:	f7fd fc52 	bl	d40ba <__cxa_guard_release>
   d6816:	4b0f      	ldr	r3, [pc, #60]	; (d6854 <pinAvailable+0x78>)
   d6818:	7818      	ldrb	r0, [r3, #0]
   d681a:	f7ff f95d 	bl	d5ad8 <hal_spi_is_enabled>
   d681e:	2800      	cmp	r0, #0
   d6820:	d1df      	bne.n	d67e2 <pinAvailable+0x6>
  return true; // 'pin' is available
   d6822:	2001      	movs	r0, #1
   d6824:	e7de      	b.n	d67e4 <pinAvailable+0x8>
  if((pin == SCL || pin == SDA) && hal_i2c_is_enabled(Wire.interface(), nullptr) == true)
   d6826:	2801      	cmp	r0, #1
   d6828:	d809      	bhi.n	d683e <pinAvailable+0x62>
   d682a:	f000 f86b 	bl	d6904 <_Z19__fetch_global_Wirev>
   d682e:	2100      	movs	r1, #0
   d6830:	7c00      	ldrb	r0, [r0, #16]
   d6832:	f7ff f921 	bl	d5a78 <hal_i2c_is_enabled>
  if((pin == RX || pin == TX) && hal_usart_is_enabled(Serial1.interface()) == true)
   d6836:	f080 0001 	eor.w	r0, r0, #1
   d683a:	b2c0      	uxtb	r0, r0
   d683c:	e7d2      	b.n	d67e4 <pinAvailable+0x8>
   d683e:	3809      	subs	r0, #9
   d6840:	2801      	cmp	r0, #1
   d6842:	d8ee      	bhi.n	d6822 <pinAvailable+0x46>
   d6844:	f7ff fe30 	bl	d64a8 <_Z22__fetch_global_Serial1v>
   d6848:	7c00      	ldrb	r0, [r0, #16]
   d684a:	f7ff f8bd 	bl	d59c8 <hal_usart_is_enabled>
   d684e:	e7f2      	b.n	d6836 <pinAvailable+0x5a>
   d6850:	2003e644 	.word	0x2003e644
   d6854:	2003e648 	.word	0x2003e648

000d6858 <pinMode>:
  if(pin >= TOTAL_PINS || setMode == PIN_MODE_NONE )
   d6858:	2823      	cmp	r0, #35	; 0x23
{
   d685a:	b538      	push	{r3, r4, r5, lr}
   d685c:	4604      	mov	r4, r0
   d685e:	460d      	mov	r5, r1
  if(pin >= TOTAL_PINS || setMode == PIN_MODE_NONE )
   d6860:	d80a      	bhi.n	d6878 <pinMode+0x20>
   d6862:	29ff      	cmp	r1, #255	; 0xff
   d6864:	d008      	beq.n	d6878 <pinMode+0x20>
  if( !pinAvailable(pin) ) {
   d6866:	f7ff ffb9 	bl	d67dc <pinAvailable>
   d686a:	b128      	cbz	r0, d6878 <pinMode+0x20>
  HAL_Pin_Mode(pin, setMode);
   d686c:	4629      	mov	r1, r5
   d686e:	4620      	mov	r0, r4
}
   d6870:	e8bd 4038 	ldmia.w	sp!, {r3, r4, r5, lr}
  HAL_Pin_Mode(pin, setMode);
   d6874:	f7ff b818 	b.w	d58a8 <HAL_Pin_Mode>
}
   d6878:	bd38      	pop	{r3, r4, r5, pc}

000d687a <digitalWrite>:

/*
 * @brief Sets a GPIO pin to HIGH or LOW.
 */
void digitalWrite(pin_t pin, uint8_t value)
{
   d687a:	b538      	push	{r3, r4, r5, lr}
   d687c:	4604      	mov	r4, r0
   d687e:	460d      	mov	r5, r1
    PinMode mode = HAL_Get_Pin_Mode(pin);
   d6880:	f7ff f81a 	bl	d58b8 <HAL_Get_Pin_Mode>
    if (mode==PIN_MODE_NONE || is_input_mode(mode))
   d6884:	28ff      	cmp	r0, #255	; 0xff
   d6886:	d010      	beq.n	d68aa <digitalWrite+0x30>
            mode == INPUT_PULLDOWN ||
   d6888:	2806      	cmp	r0, #6
   d688a:	d804      	bhi.n	d6896 <digitalWrite+0x1c>
   d688c:	234d      	movs	r3, #77	; 0x4d
   d688e:	fa23 f000 	lsr.w	r0, r3, r0
   d6892:	07c3      	lsls	r3, r0, #31
   d6894:	d409      	bmi.n	d68aa <digitalWrite+0x30>
        return;
  // Safety check
  if( !pinAvailable(pin) ) {
   d6896:	4620      	mov	r0, r4
   d6898:	f7ff ffa0 	bl	d67dc <pinAvailable>
   d689c:	b128      	cbz	r0, d68aa <digitalWrite+0x30>
    return;
  }

  HAL_GPIO_Write(pin, value);
   d689e:	4629      	mov	r1, r5
   d68a0:	4620      	mov	r0, r4
}
   d68a2:	e8bd 4038 	ldmia.w	sp!, {r3, r4, r5, lr}
  HAL_GPIO_Write(pin, value);
   d68a6:	f7ff b80f 	b.w	d58c8 <HAL_GPIO_Write>
}
   d68aa:	bd38      	pop	{r3, r4, r5, pc}

000d68ac <digitalRead>:

/*
 * @brief Reads the value of a GPIO pin. Should return either 1 (HIGH) or 0 (LOW).
 */
int32_t digitalRead(pin_t pin)
{
   d68ac:	b510      	push	{r4, lr}
   d68ae:	4604      	mov	r4, r0
    PinMode mode = HAL_Get_Pin_Mode(pin);
   d68b0:	f7ff f802 	bl	d58b8 <HAL_Get_Pin_Mode>
    return mode == AF_OUTPUT_PUSHPULL ||
   d68b4:	1f03      	subs	r3, r0, #4
    if (is_af_output_mode(mode))
   d68b6:	b2db      	uxtb	r3, r3
   d68b8:	2b01      	cmp	r3, #1
   d68ba:	d908      	bls.n	d68ce <digitalRead+0x22>
        return LOW;

    // Safety check
    if( !pinAvailable(pin) ) {
   d68bc:	4620      	mov	r0, r4
   d68be:	f7ff ff8d 	bl	d67dc <pinAvailable>
   d68c2:	b120      	cbz	r0, d68ce <digitalRead+0x22>
      return LOW;
    }

    return HAL_GPIO_Read(pin);
   d68c4:	4620      	mov	r0, r4
}
   d68c6:	e8bd 4010 	ldmia.w	sp!, {r4, lr}
    return HAL_GPIO_Read(pin);
   d68ca:	f7ff b805 	b.w	d58d8 <HAL_GPIO_Read>
}
   d68ce:	2000      	movs	r0, #0
   d68d0:	bd10      	pop	{r4, pc}
	...

000d68d4 <_Z17acquireWireBufferv>:
}

} // anonymous

hal_i2c_config_t __attribute__((weak)) acquireWireBuffer()
{
   d68d4:	b538      	push	{r3, r4, r5, lr}
	hal_i2c_config_t config = {
   d68d6:	2300      	movs	r3, #0
   d68d8:	2520      	movs	r5, #32
   d68da:	8043      	strh	r3, [r0, #2]
   d68dc:	2314      	movs	r3, #20
{
   d68de:	4604      	mov	r4, r0
	hal_i2c_config_t config = {
   d68e0:	8003      	strh	r3, [r0, #0]
   d68e2:	6085      	str	r5, [r0, #8]
   d68e4:	6105      	str	r5, [r0, #16]
		.rx_buffer = new (std::nothrow) uint8_t[I2C_BUFFER_LENGTH],
   d68e6:	4906      	ldr	r1, [pc, #24]	; (d6900 <_Z17acquireWireBufferv+0x2c>)
   d68e8:	4628      	mov	r0, r5
   d68ea:	f000 f83a 	bl	d6962 <_ZnajRKSt9nothrow_t>
		.tx_buffer = new (std::nothrow) uint8_t[I2C_BUFFER_LENGTH],
   d68ee:	4904      	ldr	r1, [pc, #16]	; (d6900 <_Z17acquireWireBufferv+0x2c>)
	};
   d68f0:	6060      	str	r0, [r4, #4]
		.tx_buffer = new (std::nothrow) uint8_t[I2C_BUFFER_LENGTH],
   d68f2:	4628      	mov	r0, r5
   d68f4:	f000 f835 	bl	d6962 <_ZnajRKSt9nothrow_t>
	};
   d68f8:	60e0      	str	r0, [r4, #12]
	return defaultWireConfig();
}
   d68fa:	4620      	mov	r0, r4
   d68fc:	bd38      	pop	{r3, r4, r5, pc}
   d68fe:	bf00      	nop
   d6900:	000d76fc 	.word	0x000d76fc

000d6904 <_Z19__fetch_global_Wirev>:
	return defaultWireConfig();
}
#endif

TwoWire& __fetch_global_Wire()
{
   d6904:	b530      	push	{r4, r5, lr}
	static TwoWire wire(HAL_I2C_INTERFACE1, acquireWireBuffer());
   d6906:	4d0f      	ldr	r5, [pc, #60]	; (d6944 <_Z19__fetch_global_Wirev+0x40>)
   d6908:	7829      	ldrb	r1, [r5, #0]
   d690a:	f3bf 8f5b 	dmb	ish
   d690e:	f011 0401 	ands.w	r4, r1, #1
{
   d6912:	b087      	sub	sp, #28
	static TwoWire wire(HAL_I2C_INTERFACE1, acquireWireBuffer());
   d6914:	d113      	bne.n	d693e <_Z19__fetch_global_Wirev+0x3a>
   d6916:	4628      	mov	r0, r5
   d6918:	f7fd fbca 	bl	d40b0 <__cxa_guard_acquire>
   d691c:	b178      	cbz	r0, d693e <_Z19__fetch_global_Wirev+0x3a>
   d691e:	a801      	add	r0, sp, #4
   d6920:	f7ff ffd8 	bl	d68d4 <_Z17acquireWireBufferv>
   d6924:	aa01      	add	r2, sp, #4
   d6926:	4621      	mov	r1, r4
   d6928:	4807      	ldr	r0, [pc, #28]	; (d6948 <_Z19__fetch_global_Wirev+0x44>)
   d692a:	f7ff fe13 	bl	d6554 <_ZN7TwoWireC1E19hal_i2c_interface_tRK16hal_i2c_config_t>
   d692e:	4628      	mov	r0, r5
   d6930:	f7fd fbc3 	bl	d40ba <__cxa_guard_release>
   d6934:	4a05      	ldr	r2, [pc, #20]	; (d694c <_Z19__fetch_global_Wirev+0x48>)
   d6936:	4906      	ldr	r1, [pc, #24]	; (d6950 <_Z19__fetch_global_Wirev+0x4c>)
   d6938:	4803      	ldr	r0, [pc, #12]	; (d6948 <_Z19__fetch_global_Wirev+0x44>)
   d693a:	f000 f80b 	bl	d6954 <__aeabi_atexit>
	return wire;
}
   d693e:	4802      	ldr	r0, [pc, #8]	; (d6948 <_Z19__fetch_global_Wirev+0x44>)
   d6940:	b007      	add	sp, #28
   d6942:	bd30      	pop	{r4, r5, pc}
   d6944:	2003e7d8 	.word	0x2003e7d8
   d6948:	2003e7dc 	.word	0x2003e7dc
   d694c:	2003e5c0 	.word	0x2003e5c0
   d6950:	000d64fd 	.word	0x000d64fd

000d6954 <__aeabi_atexit>:
   d6954:	460b      	mov	r3, r1
   d6956:	4601      	mov	r1, r0
   d6958:	4618      	mov	r0, r3
   d695a:	f000 b805 	b.w	d6968 <__cxa_atexit>

000d695e <_ZdlPvj>:
   d695e:	f7fd bb9a 	b.w	d4096 <_ZdlPv>

000d6962 <_ZnajRKSt9nothrow_t>:
   d6962:	f7fd bb96 	b.w	d4092 <_Znaj>
	...

000d6968 <__cxa_atexit>:
   d6968:	b510      	push	{r4, lr}
   d696a:	4c05      	ldr	r4, [pc, #20]	; (d6980 <__cxa_atexit+0x18>)
   d696c:	4613      	mov	r3, r2
   d696e:	b12c      	cbz	r4, d697c <__cxa_atexit+0x14>
   d6970:	460a      	mov	r2, r1
   d6972:	4601      	mov	r1, r0
   d6974:	2002      	movs	r0, #2
   d6976:	f3af 8000 	nop.w
   d697a:	bd10      	pop	{r4, pc}
   d697c:	4620      	mov	r0, r4
   d697e:	e7fc      	b.n	d697a <__cxa_atexit+0x12>
   d6980:	00000000 	.word	0x00000000

000d6984 <memcpy>:
   d6984:	440a      	add	r2, r1
   d6986:	4291      	cmp	r1, r2
   d6988:	f100 33ff 	add.w	r3, r0, #4294967295
   d698c:	d100      	bne.n	d6990 <memcpy+0xc>
   d698e:	4770      	bx	lr
   d6990:	b510      	push	{r4, lr}
   d6992:	f811 4b01 	ldrb.w	r4, [r1], #1
   d6996:	f803 4f01 	strb.w	r4, [r3, #1]!
   d699a:	4291      	cmp	r1, r2
   d699c:	d1f9      	bne.n	d6992 <memcpy+0xe>
   d699e:	bd10      	pop	{r4, pc}

000d69a0 <memset>:
   d69a0:	4402      	add	r2, r0
   d69a2:	4603      	mov	r3, r0
   d69a4:	4293      	cmp	r3, r2
   d69a6:	d100      	bne.n	d69aa <memset+0xa>
   d69a8:	4770      	bx	lr
   d69aa:	f803 1b01 	strb.w	r1, [r3], #1
   d69ae:	e7f9      	b.n	d69a4 <memset+0x4>

000d69b0 <srand>:
   d69b0:	b538      	push	{r3, r4, r5, lr}
   d69b2:	4b0d      	ldr	r3, [pc, #52]	; (d69e8 <srand+0x38>)
   d69b4:	681d      	ldr	r5, [r3, #0]
   d69b6:	6bab      	ldr	r3, [r5, #56]	; 0x38
   d69b8:	4604      	mov	r4, r0
   d69ba:	b97b      	cbnz	r3, d69dc <srand+0x2c>
   d69bc:	2018      	movs	r0, #24
   d69be:	f7ff f97f 	bl	d5cc0 <malloc>
   d69c2:	4a0a      	ldr	r2, [pc, #40]	; (d69ec <srand+0x3c>)
   d69c4:	4b0a      	ldr	r3, [pc, #40]	; (d69f0 <srand+0x40>)
   d69c6:	63a8      	str	r0, [r5, #56]	; 0x38
   d69c8:	e9c0 2300 	strd	r2, r3, [r0]
   d69cc:	4b09      	ldr	r3, [pc, #36]	; (d69f4 <srand+0x44>)
   d69ce:	6083      	str	r3, [r0, #8]
   d69d0:	230b      	movs	r3, #11
   d69d2:	8183      	strh	r3, [r0, #12]
   d69d4:	2201      	movs	r2, #1
   d69d6:	2300      	movs	r3, #0
   d69d8:	e9c0 2304 	strd	r2, r3, [r0, #16]
   d69dc:	6bab      	ldr	r3, [r5, #56]	; 0x38
   d69de:	2200      	movs	r2, #0
   d69e0:	611c      	str	r4, [r3, #16]
   d69e2:	615a      	str	r2, [r3, #20]
   d69e4:	bd38      	pop	{r3, r4, r5, pc}
   d69e6:	bf00      	nop
   d69e8:	2003e55c 	.word	0x2003e55c
   d69ec:	abcd330e 	.word	0xabcd330e
   d69f0:	e66d1234 	.word	0xe66d1234
   d69f4:	0005deec 	.word	0x0005deec

000d69f8 <strlen>:
   d69f8:	4603      	mov	r3, r0
   d69fa:	f813 2b01 	ldrb.w	r2, [r3], #1
   d69fe:	2a00      	cmp	r2, #0
   d6a00:	d1fb      	bne.n	d69fa <strlen+0x2>
   d6a02:	1a18      	subs	r0, r3, r0
   d6a04:	3801      	subs	r0, #1
   d6a06:	4770      	bx	lr

000d6a08 <dynalib_user>:
   d6a08:	401d 000d 4059 000d 4081 000d 4085 000d     .@..Y@...@...@..
   d6a18:	0000 0000 7250 786f 6d69 7469 2079 6156     ....Proximity Va
   d6a28:	756c 3a65 0020 6d41 6962 6e65 2074 6156     lue: .Ambient Va
   d6a38:	756c 3a65 0020 3249 2043 6461 7264 7365     lue: .I2C addres
   d6a48:	3a73 3020 3678 0030 6564 6166 6c75 2074     s: 0x60.default 
   d6a58:	4d00 4253 4c00 4253 3c00 5053 5349 7465     .MSB.LSB.<SPISet
   d6a68:	6974 676e 2073 6564 6166 6c75 3e74 3c00     tings default>.<
   d6a78:	5053 5349 7465 6974 676e 2073 7325 7525     SPISettings %s%u
   d6a88:	2520 2073 4f4d 4544 7525 003e                %s MODE%u>.

000d6a94 <_ZL4font>:
   d6a94:	0000 0000 3e00 4f5b 3e5b 6b3e 6b4f 1c3e     .....>[O[>>kOk>.
   d6aa4:	7c3e 1c3e 3c18 3c7e 1c18 7d57 1c57 5e1c     >|>..<~<..W}W..^
   d6ab4:	5e7f 001c 3c18 0018 e7ff e7c3 00ff 2418     .^...<.........$
   d6ac4:	0018 e7ff e7db 30ff 3a48 0e06 2926 2979     .......0H:..&)y)
   d6ad4:	4026 057f 0705 7f40 2505 5a3f e73c 5a3c     &@....@..%?Z<.<Z
   d6ae4:	3e7f 1c1c 0808 1c1c 7f3e 2214 227f 5f14     .>......>.."."._
   d6af4:	005f 5f5f 0906 017f 007f 8966 6a95 6060     _.__......f..j``
   d6b04:	6060 9460 ffa2 94a2 0408 047e 1008 7e20     ```.......~... ~
   d6b14:	1020 0808 1c2a 0808 2a1c 0808 101e 1010      ...*....*......
   d6b24:	0c10 0c1e 0c1e 3830 383e 0630 3e0e 060e     ......08>80..>..
   d6b34:	0000 0000 0000 5f00 0000 0700 0700 1400     ......._........
   d6b44:	147f 147f 2a24 2a7f 2312 0813 6264 4936     ....$*.*.#..db6I
   d6b54:	2056 0050 0708 0003 1c00 4122 0000 2241     V P......."A..A"
   d6b64:	001c 1c2a 1c7f 082a 3e08 0808 8000 3070     ..*...*..>....p0
   d6b74:	0800 0808 0808 0000 6060 2000 0810 0204     ........``. ....
   d6b84:	513e 4549 003e 7f42 0040 4972 4949 2146     >QIE>.B.@.rIIIF!
   d6b94:	4941 334d 1418 7f12 2710 4545 3945 4a3c     AIM3.....'EEE9<J
   d6ba4:	4949 4131 1121 0709 4936 4949 4636 4949     II1A!...6III6FII
   d6bb4:	1e29 0000 0014 0000 3440 0000 0800 2214     ).......@4....."
   d6bc4:	1441 1414 1414 4100 1422 0208 5901 0609     A......A"....Y..
   d6bd4:	413e 595d 7c4e 1112 7c12 497f 4949 3e36     >A]YN|...|.III6>
   d6be4:	4141 2241 417f 4141 7f3e 4949 4149 097f     AAA".AAA>.IIIA..
   d6bf4:	0909 3e01 4141 7351 087f 0808 007f 7f41     ...>AAQs......A.
   d6c04:	0041 4020 3f41 7f01 1408 4122 407f 4040     A. @A?...."A.@@@
   d6c14:	7f40 1c02 7f02 047f 1008 3e7f 4141 3e41     @..........>AAA>
   d6c24:	097f 0909 3e06 5141 5e21 097f 2919 2646     .....>AQ!^...)F&
   d6c34:	4949 3249 0103 017f 3f03 4040 3f40 201f     III2.....?@@@?. 
   d6c44:	2040 3f1f 3840 3f40 1463 1408 0363 7804     @ .?@8@?c...c..x
   d6c54:	0304 5961 4d49 0043 417f 4141 0402 1008     ..aYIMC..AAA....
   d6c64:	0020 4141 7f41 0204 0201 4004 4040 4040      .AAA......@@@@@
   d6c74:	0300 0807 2000 5454 4078 287f 4444 3838     ..... TTx@.(DD88
   d6c84:	4444 2844 4438 2844 387f 5454 1854 0800     DDD(8DD(.8TTT...
   d6c94:	097e 1802 a4a4 789c 087f 0404 0078 7d44     ~......x....x.D}
   d6ca4:	0040 4020 3d40 7f00 2810 0044 4100 407f     @. @@=...(D..A.@
   d6cb4:	7c00 7804 7804 087c 0404 3878 4444 3844     .|.x.x|...x8DDD8
   d6cc4:	18fc 2424 1818 2424 fc18 087c 0404 4808     ..$$..$$..|....H
   d6cd4:	5454 2454 0404 443f 3c24 4040 7c20 201c     TTT$..?D$<@@ |. 
   d6ce4:	2040 3c1c 3040 3c40 2844 2810 4c44 9090     @ .<@0@<D(.(DL..
   d6cf4:	7c90 6444 4c54 0044 3608 0041 0000 0077     .|DdTLD..6A...w.
   d6d04:	0000 3641 0008 0102 0402 3c02 2326 3c26     ..A6.......<&#&<
   d6d14:	a11e 61a1 3a12 4040 7a20 5438 5554 2159     ...a.:@@ z8TTUY!
   d6d24:	5555 4179 5422 7854 2142 5455 4078 5420     UUyA"TTxB!UTx@ T
   d6d34:	7955 0c40 521e 1272 5539 5555 3959 5454     Uy@..Rr.9UUUY9TT
   d6d44:	5954 5539 5454 0058 4500 417c 0200 7d45     TY9UTTX..E|A..E}
   d6d54:	0042 4501 407c 127d 1211 f07d 2528 f028     B..E|@}...}.(%(.
   d6d64:	547c 4555 2000 5454 547c 0a7c 7f09 3249     |TUE. TT|T|...I2
   d6d74:	4949 3249 443a 4444 323a 484a 3048 413a     III2:DDD:2JHH0:A
   d6d84:	2141 3a7a 4042 7820 9d00 a0a0 3d7d 4242     A!z:B@ x....}=BB
   d6d94:	3d42 403d 4040 3c3d ff24 2424 7e48 4349     B==@@@=<$.$$H~IC
   d6da4:	2b66 fc2f 2b2f 09ff f629 c020 7e88 0309     f+/./+..). ..~..
   d6db4:	5420 7954 0041 4400 417d 4830 4a48 3832      TTyA..D}A0HHJ28
   d6dc4:	4040 7a22 7a00 0a0a 7d72 190d 7d31 2926     @@"z.z..r}..1}&)
   d6dd4:	2f29 2628 2929 2629 4830 404d 3820 0808     )/(&)))&0HM@ 8..
   d6de4:	0808 0808 0808 2f38 c810 baac 102f 3428     ......8/..../.(4
   d6df4:	00fa 7b00 0000 1408 142a 2222 2a14 0814     ...{....*."".*..
   d6e04:	0055 0055 aa55 aa55 aa55 55ff 55ff 00ff     U.U.U.U.U..U.U..
   d6e14:	0000 00ff 1010 ff10 1400 1414 00ff 1010     ................
   d6e24:	00ff 10ff f010 f010 1414 fc14 1400 f714     ................
   d6e34:	ff00 0000 00ff 14ff f414 fc04 1414 1017     ................
   d6e44:	101f 1f10 1f10 1414 1f14 1000 1010 00f0     ................
   d6e54:	0000 1f00 1010 1010 101f 1010 f010 0010     ................
   d6e64:	0000 10ff 1010 1010 1010 1010 10ff 0000     ................
   d6e74:	ff00 0014 ff00 ff00 0000 101f 0017 fc00     ................
   d6e84:	f404 1414 1017 1417 f414 f404 0000 00ff     ................
   d6e94:	14f7 1414 1414 1414 00f7 14f7 1414 1417     ................
   d6ea4:	1010 101f 141f 1414 14f4 1010 10f0 00f0     ................
   d6eb4:	1f00 1f10 0000 1f00 0014 0000 14fc 0000     ................
   d6ec4:	10f0 10f0 ff10 ff10 1414 ff14 1014 1010     ................
   d6ed4:	001f 0000 f000 ff10 ffff ffff f0f0 f0f0     ................
   d6ee4:	fff0 ffff 0000 0000 ff00 0fff 0f0f 0f0f     ................
   d6ef4:	4438 3844 fc44 4a4a 344a 027e 0602 0206     8DD8D.JJJ4~.....
   d6f04:	027e 027e 5563 4149 3863 4444 043c 7e40     ~.~.cUIAc8DD<.@~
   d6f14:	1e20 0620 7e02 0202 a599 a5e7 1c99 492a      . ..~........*I
   d6f24:	1c2a 724c 7201 304c 4d4a 304d 4830 4878     *.Lr.rL0JMM00HxH
   d6f34:	bc30 5a62 3d46 493e 4949 7e00 0101 7e01     0.bZF=>III.~...~
   d6f44:	2a2a 2a2a 442a 5f44 4444 5140 444a 4040     *****DD_DD@QJD@@
   d6f54:	4a44 4051 0000 01ff e003 ff80 0000 0808     DJQ@............
   d6f64:	6b6b 3608 3612 3624 0f06 0f09 0006 1800     kk.6.6$6........
   d6f74:	0018 0000 1010 3000 ff40 0101 1f00 0101     .......0@.......
   d6f84:	001e 1d19 1217 3c00 3c3c 003c 0000 0000     .......<<<<.....

000d6f94 <_ZTV12Adafruit_GFX>:
	...
   d6fa4:	49d1 000d 5f61 000d 409d 000d 43d9 000d     .I..a_...@...C..
   d6fb4:	43db 000d 440d 000d 43e9 000d 43fb 000d     .C...D...C...C..
   d6fc4:	431d 000d 43d9 000d 4605 000d 457f 000d     .C...C...F...E..
   d6fd4:	4425 000d 4463 000d 449d 000d 44e3 000d     %D..cD...D...D..
   d6fe4:	4581 000d 44ff 000d                         .E...D..

000d6fec <_ZTV16OledWingAdafruit>:
	...
   d6ff4:	4ae1 000d 4b01 000d 49d1 000d 5f61 000d     .J...K...I..a_..
   d7004:	4fb9 000d 43d9 000d 43db 000d 440d 000d     .O...C...C...D..
   d7014:	43e9 000d 43fb 000d 431d 000d 43d9 000d     .C...C...C...C..
   d7024:	4605 000d 5173 000d 5707 000d 56b9 000d     .F..sQ...W...V..
   d7034:	449d 000d 44e3 000d 4581 000d 44ff 000d     .D...D...E...D..

000d7044 <_ZTVN8particle11SPISettingsE>:
	...
   d704c:	42c9 000d 429d 000d 429f 000d               .B...B...B..

000d7058 <_ZL12splash1_data>:
   d7058:	0000 0000 0100 0080 0000 0000 0000 0000     ................
   d7068:	8003 0000 0000 0000 0000 0700 00c0 0000     ................
   d7078:	0000 0000 0000 c007 0000 0000 0000 0000     ................
   d7088:	0f00 00c0 0000 0000 0000 0000 e01f 0000     ................
   d7098:	0000 0000 0000 1f00 00e0 0000 0000 0000     ................
   d70a8:	0000 e03f 0000 0000 0000 0000 3f00 00f0     ..?..........?..
	...
   d70c0:	f07f 0000 0000 0000 1f00 7ff8 00f0 0000     ................
   d70d0:	0000 0000 fe3f f07f 0000 0000 0000 3f00     ....?..........?
   d70e0:	7fff 00f0 0000 0000 0000 ff1f e0fb 0000     ................
   d70f0:	0000 0000 0f00 f9ff c0ff 0000 0000 0000     ................
   d7100:	ff0f fff9 00f8 0000 0000 0700 f1ff ffff     ................
   d7110:	0000 0000 0000 fc03 ff73 80ff 0000 0000     ........s.......
   d7120:	0100 3ffe ffff 0080 0000 0000 ff00 0f1e     ...?............
   d7130:	00ff 0000 0000 0000 fe7f fc1f 0000 0000     ................
   d7140:	0000 3f00 ffff 00f8 0000 0000 0000 df0f     ...?............
   d7150:	e0ff 0000 0000 0000 1f00 ff19 00c0 0000     ................
   d7160:	0000 0000 3c3f 00ff 0000 0000 0000 7e00     ....?<.........~
   d7170:	f87c 0000 0000 0000 0000 fe7f 007c 0000     |...........|...
   d7180:	0000 0000 ff00 fcff 0000 0000 0000 0000     ................
   d7190:	ffff 00fe 0000 0000 0000 ff00 feff 0000     ................
   d71a0:	0000 0000 0100 efff 00fe 0000 0000 0000     ................
   d71b0:	ff01 fecf 0000 0000 0000 0300 07ff 00fe     ................
   d71c0:	0000 0000 0000 fc03 fe07 0000 0000 0000     ................
   d71d0:	0300 03f0 00fe 0000 0000 0000 8001 fe00     ................
	...
   d71e8:	0000 007e 0000 0000 0000 0000 3e00 0000     ..~..........>..
	...
   d7200:	000c 0000 0000 0700 0080 00fc 0300 00c0     ................
   d7210:	0000 8007 fc01 0000 c003 0000 0700 0180     ................
   d7220:	00fc 0300 00c0 0000 8007 e001 0000 1e00     ................
   d7230:	0000 0700 0180 00e0 0000 001e e37f 9ff7     ................
   d7240:	fdf9 78e7 df7b ffc0 fff7 fdbf fffd 7b78     ...x{.........x{
   d7250:	c0df f7ff bfff fdfd 78ff df7b f0c0 87f7     .........x{.....
   d7260:	3dbc ffe1 7b78 00de f7f0 bc87 e13d 78f0     .=..x{......=..x
   d7270:	de7b 0000 87f7 3d80 e0e1 7b78 00de f77f     {......=..x{....
   d7280:	9f87 e1fd 78e0 de7b ff00 87f7 fdbf e0e1     .....x{.........
   d7290:	7b78 00de f7f0 bc87 e13d 78e0 de7b f000     x{......=..x{...
   d72a0:	87f7 3dbc e0e1 7b78 00de f7f0 bc87 e13d     ...=..x{......=.
   d72b0:	78e0 de7b ff00 fff7 fdbf e0e1 fb7f c0df     .x{.............
   d72c0:	f7ff bfff e1fd 7fe0 dffb 7cc0 f3f3 3d9f     ...........|...=
   d72d0:	e0e1 7b3e c0cf 0000 0000 0000 0000 0000     ..>{............
   d72e0:	ff00 ffff ffff ffff ffff c0ff ffff ffff     ................
   d72f0:	68fd 11db 311a ffc0 ffff fdff 5a2b 6afb     .h...1......+Z.j
   d7300:	c0ef ffff ffff 4bfd 3b5b 331a ffc0 ffff     .......K[;.3....
   d7310:	fdff 5b6b 6adb c0fd                         ..k[.j..

000d7318 <_ZL12splash2_data>:
   d7318:	0000 0060 0000 0000 0000 0000 0000 0000     ..`.............
   d7328:	e000 0000 0000 0000 0000 0000 0000 0100     ................
   d7338:	00e0 0000 0000 0000 0000 0000 0000 f001     ................
	...
   d7354:	0300 00f0 0000 0000 0000 0000 0000 0000     ................
   d7364:	f007 0000 0000 0000 0000 0000 0000 0700     ................
   d7374:	00f8 0000 0000 0000 0000 0000 0000 f80f     ................
   d7384:	0000 0300 00c0 007e 0100 00e0 0f7f 00f8     ......~.........
   d7394:	0000 c003 fe00 0000 e001 ff00 f8ef 0000     ................
   d73a4:	0300 00c0 00fe 0100 00e0 ffff 00f8 0000     ................
   d73b4:	c003 f000 0000 0f00 7f00 7ffe 00c0 0300     ................
   d73c4:	00c0 00f0 0000 000f fe3f f87f f13f cffb     ........?...?...
   d73d4:	fefc bcf3 ef3d 1fe0 7ffe 7fff fffb fedf     ....=...........
   d73e4:	fffe 3dbc e0ef c61f ffff fb7f dfff fefe     ...=............
   d73f4:	bcff ef3d 0fe0 c7e3 78fe c37b 1ede fff0     ..=......x{.....
   d7404:	3dbc 00ef ff07 fc87 7b78 dec3 f01e 3cf8     .=......x{.....<
   d7414:	ef3d 0100 ffff 00f0 c37b 1ec0 f0f0 3d3c     =.......{.....<=
   d7424:	00ef f301 e07f fb3f cfc3 f0fe 3cf0 ef3d     ......?......<=.
   d7434:	0300 3fe3 7f80 c3fb fedf f0f0 3d3c 00ef     ...?........<=..
   d7444:	e707 003c 7b78 dec3 f01e 3cf0 ef3d 0700     ..<.x{.....<=...
   d7454:	beff 7800 c37b 1ede f0f0 3d3c 00ef ff07     ...x{.....<=....
   d7464:	00fe 7b78 dec3 f01e 3cf0 ef3d 0f00 feff     ..x{.....<=.....
   d7474:	7f00 fffb fedf f0f0 fd3f e0ef ff0f 00ff     ........?.......
   d7484:	fb7f dfff f0fe 3ff0 effd 0fe0 fff9 3e00     .......?.......>
   d7494:	f979 9ecf f0f0 3d1f e0e7 f11f 00ff 0000     y......=........
	...
   d74ac:	1f00 ff80 7f00 ffff ffff ffff ffff e0ff     ................
   d74bc:	001c 007f ff7f ffff b4fe 886d 188d 00e0     ..........m.....
   d74cc:	1f00 7f00 ffff feff ad95 b57d e077 0000     ..........}.w...
   d74dc:	000f ff7f ffff a5fe 9dad 198d 00e0 0600     ................
   d74ec:	7f00 ffff feff adb5 b5ed e07e               ..........~.

000d74f8 <_ZTV16Adafruit_SSD1306>:
	...
   d7500:	4f8d 000d 4fa5 000d 49d1 000d 5f61 000d     .O...O...I..a_..
   d7510:	4fb9 000d 43d9 000d 43db 000d 440d 000d     .O...C...C...D..
   d7520:	43e9 000d 43fb 000d 431d 000d 43d9 000d     .C...C...C...C..
   d7530:	4605 000d 5173 000d 5707 000d 56b9 000d     .F..sQ...W...V..
   d7540:	449d 000d 44e3 000d 4581 000d 44ff 000d     .D...D...E...D..

000d7550 <_ZZN16Adafruit_SSD130621drawFastVLineInternalEssstE7premask>:
   d7550:	8000 e0c0 f8f0 fefc                         ........

000d7558 <_ZZN16Adafruit_SSD130621drawFastVLineInternalEssstE8postmask>:
   d7558:	0100 0703 1f0f 7f3f                         ......?.

000d7560 <_ZZN16Adafruit_SSD13065beginEhhbbE5init1>:
   d7560:	d5ae a880                                   ....

000d7564 <_ZZN16Adafruit_SSD13065beginEhhbbE5init2>:
   d7564:	00d3 8d40                                   ..@.

000d7568 <_ZZN16Adafruit_SSD13065beginEhhbbE5init3>:
   d7568:	0020 c8a1                                    ...

000d756c <_ZZN16Adafruit_SSD13065beginEhhbbE5init5>:
   d756c:	40db a6a4 af2e                              .@....

000d7572 <_ZZN16Adafruit_SSD13065beginEhhbbE6init4a>:
   d7572:	02da 8f81                                   ....

000d7576 <_ZZN16Adafruit_SSD13065beginEhhbbE6init4b>:
   d7576:	12da                                         ...

000d7579 <_ZZN16Adafruit_SSD13065beginEhhbbE6init4c>:
   d7579:	02da                                         ...

000d757c <_ZZN16Adafruit_SSD13067displayEvE6dlist1>:
   d757c:	0022 21ff 0000 0000                         "..!....

000d7584 <_ZTVN5spark13EthernetClassE>:
	...
   d758c:	5d5f 000d 5d55 000d 5d4b 000d 5d41 000d     _]..U]..K]..A]..
   d759c:	5d35 000d 5d29 000d 66b1 000d 66b9 000d     5]..)]...f...f..
   d75ac:	5d1d 000d 5d15 000d 5d0b 000d 5d01 000d     .]...]...]...]..
   d75bc:	66e9 000d                                   .f..

000d75c0 <_ZN12_GLOBAL__N_1L14clock_divisorsE>:
   d75c0:	0800 1810 2820 3830 7061 0070 5925 252d     .... (08app.%Y-%
   d75d0:	2d6d 6425 2554 3a48 4d25 253a 2553 007a     m-%dT%H:%M:%S%z.
   d75e0:	7361 7463 6d69 0065                         asctime.

000d75e8 <_ZTV9IPAddress>:
	...
   d75f0:	621d 000d 620d 000d 620f 000d               .b...b...b..

000d75fc <_ZTV9USBSerial>:
	...
   d7604:	62fd 000d 6365 000d 633b 000d 5f61 000d     .b..ec..;c..a_..
   d7614:	632d 000d 62ff 000d 630f 000d 635f 000d     -c...b...c.._c..
   d7624:	631f 000d 62f9 000d                         .c...b..

000d762c <_ZTV11USARTSerial>:
	...
   d7634:	6401 000d 646d 000d 6445 000d 5f61 000d     .d..md..Ed..a_..
   d7644:	6415 000d 6431 000d 6423 000d 643f 000d     .d..1d..#d..?d..
   d7654:	6403 000d 6407 000d                         .d...d..

000d765c <_ZTV7TwoWire>:
	...
   d7664:	64fd 000d 6547 000d 651f 000d 64ff 000d     .d..Ge...e...d..
   d7674:	6527 000d 652f 000d 6537 000d 653f 000d     'e../e..7e..?e..

000d7684 <_ZTVN5spark9WiFiClassE>:
	...
   d768c:	6653 000d 6649 000d 663f 000d 6601 000d     Sf..If..?f...f..
   d769c:	6089 000d 6633 000d 66b1 000d 66b9 000d     .`..3f...f...f..
   d76ac:	6627 000d 661f 000d 6615 000d 660b 000d     'f...f...f...f..
   d76bc:	66e9 000d                                   .f..

000d76c0 <_ZTVN5spark12NetworkClassE>:
	...
   d76c8:	6671 000d 667b 000d 6685 000d 668f 000d     qf..{f...f...f..
   d76d8:	6699 000d 66a5 000d 66b1 000d 66b9 000d     .f...f...f...f..
   d76e8:	66c1 000d 66cd 000d 66d5 000d 66df 000d     .f...f...f...f..
   d76f8:	66e9 000d                                   .f..

000d76fc <_ZSt7nothrow>:
	...

000d76fd <link_const_variable_data_end>:
   d76fd:	00          	.byte	0x00
	...

000d7700 <link_constructors_location>:
   d7700:	000d4239 	.word	0x000d4239
   d7704:	000d5d69 	.word	0x000d5d69
   d7708:	000d5ed9 	.word	0x000d5ed9
   d770c:	000d5f39 	.word	0x000d5f39
   d7710:	000d6095 	.word	0x000d6095
   d7714:	000d60a5 	.word	0x000d60a5
   d7718:	000d60cd 	.word	0x000d60cd
   d771c:	000d665d 	.word	0x000d665d
   d7720:	000d67c9 	.word	0x000d67c9

000d7724 <link_constructors_end>:
	...
